	.file	"THScompiler.cpp"
	.text
	.section	.text._ZSt23__is_constant_evaluatedv,"axG",@progbits,_ZSt23__is_constant_evaluatedv,comdat
	.weak	_ZSt23__is_constant_evaluatedv
	.type	_ZSt23__is_constant_evaluatedv, @function
_ZSt23__is_constant_evaluatedv:
.LFB1:
	.cfi_startproc
	pushq	%rbp
	.cfi_def_cfa_offset 16
	.cfi_offset 6, -16
	movq	%rsp, %rbp
	.cfi_def_cfa_register 6
	movl	$0, %eax
	popq	%rbp
	.cfi_def_cfa 7, 8
	ret
	.cfi_endproc
.LFE1:
	.size	_ZSt23__is_constant_evaluatedv, .-_ZSt23__is_constant_evaluatedv
	.section	.text._ZnwmPv,"axG",@progbits,_ZnwmPv,comdat
	.weak	_ZnwmPv
	.type	_ZnwmPv, @function
_ZnwmPv:
.LFB40:
	.cfi_startproc
	pushq	%rbp
	.cfi_def_cfa_offset 16
	.cfi_offset 6, -16
	movq	%rsp, %rbp
	.cfi_def_cfa_register 6
	movq	%rdi, -8(%rbp)
	movq	%rsi, -16(%rbp)
	movq	-16(%rbp), %rax
	popq	%rbp
	.cfi_def_cfa 7, 8
	ret
	.cfi_endproc
.LFE40:
	.size	_ZnwmPv, .-_ZnwmPv
	.section	.text._ZdlPvS_,"axG",@progbits,_ZdlPvS_,comdat
	.weak	_ZdlPvS_
	.type	_ZdlPvS_, @function
_ZdlPvS_:
.LFB42:
	.cfi_startproc
	pushq	%rbp
	.cfi_def_cfa_offset 16
	.cfi_offset 6, -16
	movq	%rsp, %rbp
	.cfi_def_cfa_register 6
	movq	%rdi, -8(%rbp)
	movq	%rsi, -16(%rbp)
	nop
	popq	%rbp
	.cfi_def_cfa 7, 8
	ret
	.cfi_endproc
.LFE42:
	.size	_ZdlPvS_, .-_ZdlPvS_
	.section	.text._ZNSt11char_traitsIcE2ltERKcS2_,"axG",@progbits,_ZNSt11char_traitsIcE2ltERKcS2_,comdat
	.weak	_ZNSt11char_traitsIcE2ltERKcS2_
	.type	_ZNSt11char_traitsIcE2ltERKcS2_, @function
_ZNSt11char_traitsIcE2ltERKcS2_:
.LFB117:
	.cfi_startproc
	pushq	%rbp
	.cfi_def_cfa_offset 16
	.cfi_offset 6, -16
	movq	%rsp, %rbp
	.cfi_def_cfa_register 6
	movq	%rdi, -8(%rbp)
	movq	%rsi, -16(%rbp)
	movq	-8(%rbp), %rax
	movzbl	(%rax), %eax
	movl	%eax, %edx
	movq	-16(%rbp), %rax
	movzbl	(%rax), %eax
	cmpb	%al, %dl
	setb	%al
	popq	%rbp
	.cfi_def_cfa 7, 8
	ret
	.cfi_endproc
.LFE117:
	.size	_ZNSt11char_traitsIcE2ltERKcS2_, .-_ZNSt11char_traitsIcE2ltERKcS2_
	.section	.text._ZNSt11char_traitsIcE7compareEPKcS2_m,"axG",@progbits,_ZNSt11char_traitsIcE7compareEPKcS2_m,comdat
	.weak	_ZNSt11char_traitsIcE7compareEPKcS2_m
	.type	_ZNSt11char_traitsIcE7compareEPKcS2_m, @function
_ZNSt11char_traitsIcE7compareEPKcS2_m:
.LFB118:
	.cfi_startproc
	pushq	%rbp
	.cfi_def_cfa_offset 16
	.cfi_offset 6, -16
	movq	%rsp, %rbp
	.cfi_def_cfa_register 6
	subq	$48, %rsp
	movq	%rdi, -24(%rbp)
	movq	%rsi, -32(%rbp)
	movq	%rdx, -40(%rbp)
	cmpq	$0, -40(%rbp)
	jne	.L9
	movl	$0, %eax
	jmp	.L10
.L9:
	call	_ZSt23__is_constant_evaluatedv
	testb	%al, %al
	je	.L11
	movq	$0, -8(%rbp)
	jmp	.L12
.L15:
	movq	-32(%rbp), %rdx
	movq	-8(%rbp), %rax
	addq	%rax, %rdx
	movq	-24(%rbp), %rcx
	movq	-8(%rbp), %rax
	addq	%rcx, %rax
	movq	%rdx, %rsi
	movq	%rax, %rdi
	call	_ZNSt11char_traitsIcE2ltERKcS2_
	testb	%al, %al
	je	.L13
	movl	$-1, %eax
	jmp	.L10
.L13:
	movq	-24(%rbp), %rdx
	movq	-8(%rbp), %rax
	addq	%rax, %rdx
	movq	-32(%rbp), %rcx
	movq	-8(%rbp), %rax
	addq	%rcx, %rax
	movq	%rdx, %rsi
	movq	%rax, %rdi
	call	_ZNSt11char_traitsIcE2ltERKcS2_
	testb	%al, %al
	je	.L14
	movl	$1, %eax
	jmp	.L10
.L14:
	addq	$1, -8(%rbp)
.L12:
	movq	-8(%rbp), %rax
	cmpq	-40(%rbp), %rax
	jb	.L15
	movl	$0, %eax
	jmp	.L10
.L11:
	movq	-40(%rbp), %rdx
	movq	-32(%rbp), %rcx
	movq	-24(%rbp), %rax
	movq	%rcx, %rsi
	movq	%rax, %rdi
	call	memcmp@PLT
	nop
.L10:
	leave
	.cfi_def_cfa 7, 8
	ret
	.cfi_endproc
.LFE118:
	.size	_ZNSt11char_traitsIcE7compareEPKcS2_m, .-_ZNSt11char_traitsIcE7compareEPKcS2_m
	.section	.text._ZNSt11char_traitsIcE6lengthEPKc,"axG",@progbits,_ZNSt11char_traitsIcE6lengthEPKc,comdat
	.weak	_ZNSt11char_traitsIcE6lengthEPKc
	.type	_ZNSt11char_traitsIcE6lengthEPKc, @function
_ZNSt11char_traitsIcE6lengthEPKc:
.LFB119:
	.cfi_startproc
	pushq	%rbp
	.cfi_def_cfa_offset 16
	.cfi_offset 6, -16
	movq	%rsp, %rbp
	.cfi_def_cfa_register 6
	subq	$16, %rsp
	movq	%rdi, -8(%rbp)
	call	_ZSt23__is_constant_evaluatedv
	testb	%al, %al
	je	.L17
	movq	-8(%rbp), %rax
	movq	%rax, %rdi
	call	_ZN9__gnu_cxx11char_traitsIcE6lengthEPKc
	jmp	.L18
.L17:
	movq	-8(%rbp), %rax
	movq	%rax, %rdi
	call	strlen@PLT
	nop
.L18:
	leave
	.cfi_def_cfa 7, 8
	ret
	.cfi_endproc
.LFE119:
	.size	_ZNSt11char_traitsIcE6lengthEPKc, .-_ZNSt11char_traitsIcE6lengthEPKc
	.local	_ZStL8__ioinit
	.comm	_ZStL8__ioinit,1,1
	.text
	.align 2
	.globl	_ZN9InputFileC2ENSt7__cxx1112basic_stringIcSt11char_traitsIcESaIcEEE
	.type	_ZN9InputFileC2ENSt7__cxx1112basic_stringIcSt11char_traitsIcESaIcEEE, @function
_ZN9InputFileC2ENSt7__cxx1112basic_stringIcSt11char_traitsIcESaIcEEE:
.LFB1894:
	.cfi_startproc
	.cfi_personality 0x9b,DW.ref.__gxx_personality_v0
	.cfi_lsda 0x1b,.LLSDA1894
	pushq	%rbp
	.cfi_def_cfa_offset 16
	.cfi_offset 6, -16
	movq	%rsp, %rbp
	.cfi_def_cfa_register 6
	pushq	%rbx
	subq	$24, %rsp
	.cfi_offset 3, -24
	movq	%rdi, -24(%rbp)
	movq	%rsi, -32(%rbp)
	movq	-24(%rbp), %rax
	movq	%rax, %rdi
.LEHB0:
	call	_ZNSt14basic_ifstreamIcSt11char_traitsIcEEC1Ev@PLT
.LEHE0:
	movq	-24(%rbp), %rax
	movq	-32(%rbp), %rcx
	movl	$8, %edx
	movq	%rcx, %rsi
	movq	%rax, %rdi
.LEHB1:
	call	_ZNSt14basic_ifstreamIcSt11char_traitsIcEE4openERKNSt7__cxx1112basic_stringIcS1_SaIcEEESt13_Ios_Openmode@PLT
.LEHE1:
	jmp	.L22
.L21:
	movq	%rax, %rbx
	movq	-24(%rbp), %rax
	movq	%rax, %rdi
	call	_ZNSt14basic_ifstreamIcSt11char_traitsIcEED1Ev@PLT
	movq	%rbx, %rax
	movq	%rax, %rdi
.LEHB2:
	call	_Unwind_Resume@PLT
.LEHE2:
.L22:
	movq	-8(%rbp), %rbx
	leave
	.cfi_def_cfa 7, 8
	ret
	.cfi_endproc
.LFE1894:
	.globl	__gxx_personality_v0
	.section	.gcc_except_table,"a",@progbits
.LLSDA1894:
	.byte	0xff
	.byte	0xff
	.byte	0x1
	.uleb128 .LLSDACSE1894-.LLSDACSB1894
.LLSDACSB1894:
	.uleb128 .LEHB0-.LFB1894
	.uleb128 .LEHE0-.LEHB0
	.uleb128 0
	.uleb128 0
	.uleb128 .LEHB1-.LFB1894
	.uleb128 .LEHE1-.LEHB1
	.uleb128 .L21-.LFB1894
	.uleb128 0
	.uleb128 .LEHB2-.LFB1894
	.uleb128 .LEHE2-.LEHB2
	.uleb128 0
	.uleb128 0
.LLSDACSE1894:
	.text
	.size	_ZN9InputFileC2ENSt7__cxx1112basic_stringIcSt11char_traitsIcESaIcEEE, .-_ZN9InputFileC2ENSt7__cxx1112basic_stringIcSt11char_traitsIcESaIcEEE
	.globl	_ZN9InputFileC1ENSt7__cxx1112basic_stringIcSt11char_traitsIcESaIcEEE
	.set	_ZN9InputFileC1ENSt7__cxx1112basic_stringIcSt11char_traitsIcESaIcEEE,_ZN9InputFileC2ENSt7__cxx1112basic_stringIcSt11char_traitsIcESaIcEEE
	.align 2
	.globl	_ZN9InputFileD2Ev
	.type	_ZN9InputFileD2Ev, @function
_ZN9InputFileD2Ev:
.LFB1897:
	.cfi_startproc
	.cfi_personality 0x9b,DW.ref.__gxx_personality_v0
	.cfi_lsda 0x1b,.LLSDA1897
	pushq	%rbp
	.cfi_def_cfa_offset 16
	.cfi_offset 6, -16
	movq	%rsp, %rbp
	.cfi_def_cfa_register 6
	subq	$16, %rsp
	movq	%rdi, -8(%rbp)
	movq	-8(%rbp), %rax
	movq	%rax, %rdi
	call	_ZNSt14basic_ifstreamIcSt11char_traitsIcEE5closeEv@PLT
	movq	-8(%rbp), %rax
	movq	%rax, %rdi
	call	_ZNSt14basic_ifstreamIcSt11char_traitsIcEED1Ev@PLT
	nop
	leave
	.cfi_def_cfa 7, 8
	ret
	.cfi_endproc
.LFE1897:
	.section	.gcc_except_table
.LLSDA1897:
	.byte	0xff
	.byte	0xff
	.byte	0x1
	.uleb128 .LLSDACSE1897-.LLSDACSB1897
.LLSDACSB1897:
.LLSDACSE1897:
	.text
	.size	_ZN9InputFileD2Ev, .-_ZN9InputFileD2Ev
	.globl	_ZN9InputFileD1Ev
	.set	_ZN9InputFileD1Ev,_ZN9InputFileD2Ev
	.align 2
	.globl	_ZN9InputFile8ReadNextEv
	.type	_ZN9InputFile8ReadNextEv, @function
_ZN9InputFile8ReadNextEv:
.LFB1899:
	.cfi_startproc
	pushq	%rbp
	.cfi_def_cfa_offset 16
	.cfi_offset 6, -16
	movq	%rsp, %rbp
	.cfi_def_cfa_register 6
	subq	$16, %rsp
	movq	%rdi, -8(%rbp)
	movq	-8(%rbp), %rax
	movq	%rax, %rdi
	call	_ZNSi3getEv@PLT
	leave
	.cfi_def_cfa 7, 8
	ret
	.cfi_endproc
.LFE1899:
	.size	_ZN9InputFile8ReadNextEv, .-_ZN9InputFile8ReadNextEv
	.align 2
	.globl	_ZN9InputFile8PeekNextEv
	.type	_ZN9InputFile8PeekNextEv, @function
_ZN9InputFile8PeekNextEv:
.LFB1900:
	.cfi_startproc
	pushq	%rbp
	.cfi_def_cfa_offset 16
	.cfi_offset 6, -16
	movq	%rsp, %rbp
	.cfi_def_cfa_register 6
	subq	$16, %rsp
	movq	%rdi, -8(%rbp)
	movq	-8(%rbp), %rax
	movq	%rax, %rdi
	call	_ZNSi4peekEv@PLT
	leave
	.cfi_def_cfa 7, 8
	ret
	.cfi_endproc
.LFE1900:
	.size	_ZN9InputFile8PeekNextEv, .-_ZN9InputFile8PeekNextEv
	.align 2
	.globl	_ZN9InputFile11IsEndOfFileEv
	.type	_ZN9InputFile11IsEndOfFileEv, @function
_ZN9InputFile11IsEndOfFileEv:
.LFB1901:
	.cfi_startproc
	pushq	%rbp
	.cfi_def_cfa_offset 16
	.cfi_offset 6, -16
	movq	%rsp, %rbp
	.cfi_def_cfa_register 6
	subq	$16, %rsp
	movq	%rdi, -8(%rbp)
	movq	-8(%rbp), %rax
	addq	$256, %rax
	movq	%rax, %rdi
	call	_ZNKSt9basic_iosIcSt11char_traitsIcEE3eofEv@PLT
	leave
	.cfi_def_cfa 7, 8
	ret
	.cfi_endproc
.LFE1901:
	.size	_ZN9InputFile11IsEndOfFileEv, .-_ZN9InputFile11IsEndOfFileEv
	.align 2
	.globl	_ZN9InputFile6IsGoodEv
	.type	_ZN9InputFile6IsGoodEv, @function
_ZN9InputFile6IsGoodEv:
.LFB1902:
	.cfi_startproc
	pushq	%rbp
	.cfi_def_cfa_offset 16
	.cfi_offset 6, -16
	movq	%rsp, %rbp
	.cfi_def_cfa_register 6
	subq	$16, %rsp
	movq	%rdi, -8(%rbp)
	movq	-8(%rbp), %rax
	addq	$256, %rax
	movq	%rax, %rdi
	call	_ZNKSt9basic_iosIcSt11char_traitsIcEE4goodEv@PLT
	leave
	.cfi_def_cfa 7, 8
	ret
	.cfi_endproc
.LFE1902:
	.size	_ZN9InputFile6IsGoodEv, .-_ZN9InputFile6IsGoodEv
	.section	.rodata
	.align 4
	.type	_ZN9__gnu_cxxL21__default_lock_policyE, @object
	.size	_ZN9__gnu_cxxL21__default_lock_policyE, 4
_ZN9__gnu_cxxL21__default_lock_policyE:
	.long	2
	.section	.text._ZNSt16_Sp_counted_baseILN9__gnu_cxx12_Lock_policyE2EE10_M_releaseEv,"axG",@progbits,_ZNSt16_Sp_counted_baseILN9__gnu_cxx12_Lock_policyE2EE10_M_releaseEv,comdat
	.align 2
	.weak	_ZNSt16_Sp_counted_baseILN9__gnu_cxx12_Lock_policyE2EE10_M_releaseEv
	.type	_ZNSt16_Sp_counted_baseILN9__gnu_cxx12_Lock_policyE2EE10_M_releaseEv, @function
_ZNSt16_Sp_counted_baseILN9__gnu_cxx12_Lock_policyE2EE10_M_releaseEv:
.LFB2631:
	.cfi_startproc
	pushq	%rbp
	.cfi_def_cfa_offset 16
	.cfi_offset 6, -16
	movq	%rsp, %rbp
	.cfi_def_cfa_register 6
	subq	$96, %rsp
	movq	%rdi, -88(%rbp)
	movb	$1, -1(%rbp)
	movb	$1, -2(%rbp)
	movb	$1, -3(%rbp)
	movl	$32, -8(%rbp)
	movl	$32, -12(%rbp)
	movabsq	$4294967297, %rax
	movq	%rax, -24(%rbp)
	movq	-88(%rbp), %rax
	addq	$8, %rax
	movq	%rax, -32(%rbp)
	movq	-32(%rbp), %rax
	movq	(%rax), %rdx
	movabsq	$4294967297, %rax
	cmpq	%rax, %rdx
	sete	%al
	testb	%al, %al
	je	.L33
	movq	-88(%rbp), %rax
	movl	$0, 8(%rax)
	movq	-88(%rbp), %rax
	movl	8(%rax), %edx
	movq	-88(%rbp), %rax
	movl	%edx, 12(%rax)
	movq	-88(%rbp), %rax
	movq	(%rax), %rax
	addq	$16, %rax
	movq	(%rax), %rdx
	movq	-88(%rbp), %rax
	movq	%rax, %rdi
	call	*%rdx
	movq	-88(%rbp), %rax
	movq	(%rax), %rax
	addq	$24, %rax
	movq	(%rax), %rdx
	movq	-88(%rbp), %rax
	movq	%rax, %rdi
	call	*%rdx
	jmp	.L32
.L33:
	movq	-88(%rbp), %rax
	addq	$8, %rax
	movq	%rax, -40(%rbp)
	movl	$-1, -44(%rbp)
	movzbl	__libc_single_threaded(%rip), %eax
	testb	%al, %al
	setne	%al
	testb	%al, %al
	je	.L36
	movq	-40(%rbp), %rax
	movq	%rax, -56(%rbp)
	movl	-44(%rbp), %eax
	movl	%eax, -60(%rbp)
	movq	-56(%rbp), %rax
	movl	(%rax), %eax
	movl	%eax, -64(%rbp)
	movq	-56(%rbp), %rax
	movl	(%rax), %edx
	movl	-60(%rbp), %eax
	addl	%eax, %edx
	movq	-56(%rbp), %rax
	movl	%edx, (%rax)
	movl	-64(%rbp), %eax
	jmp	.L38
.L36:
	movq	-40(%rbp), %rax
	movq	%rax, -72(%rbp)
	movl	-44(%rbp), %eax
	movl	%eax, -76(%rbp)
	movl	-76(%rbp), %edx
	movq	-72(%rbp), %rax
	lock xaddl	%edx, (%rax)
	movl	%edx, %eax
	nop
.L38:
	cmpl	$1, %eax
	sete	%al
	testb	%al, %al
	je	.L32
	movq	-88(%rbp), %rax
	movq	%rax, %rdi
	call	_ZNSt16_Sp_counted_baseILN9__gnu_cxx12_Lock_policyE2EE24_M_release_last_use_coldEv
	nop
.L32:
	leave
	.cfi_def_cfa 7, 8
	ret
	.cfi_endproc
.LFE2631:
	.size	_ZNSt16_Sp_counted_baseILN9__gnu_cxx12_Lock_policyE2EE10_M_releaseEv, .-_ZNSt16_Sp_counted_baseILN9__gnu_cxx12_Lock_policyE2EE10_M_releaseEv
	.section	.rodata
	.type	_ZN6__pstl9execution2v1L3seqE, @object
	.size	_ZN6__pstl9execution2v1L3seqE, 1
_ZN6__pstl9execution2v1L3seqE:
	.zero	1
	.type	_ZN6__pstl9execution2v1L3parE, @object
	.size	_ZN6__pstl9execution2v1L3parE, 1
_ZN6__pstl9execution2v1L3parE:
	.zero	1
	.type	_ZN6__pstl9execution2v1L9par_unseqE, @object
	.size	_ZN6__pstl9execution2v1L9par_unseqE, 1
_ZN6__pstl9execution2v1L9par_unseqE:
	.zero	1
	.type	_ZN6__pstl9execution2v1L5unseqE, @object
	.size	_ZN6__pstl9execution2v1L5unseqE, 1
_ZN6__pstl9execution2v1L5unseqE:
	.zero	1
	.section	.text._ZN7TwoCharC2Ec,"axG",@progbits,_ZN7TwoCharC5Ec,comdat
	.align 2
	.weak	_ZN7TwoCharC2Ec
	.type	_ZN7TwoCharC2Ec, @function
_ZN7TwoCharC2Ec:
.LFB3026:
	.cfi_startproc
	pushq	%rbp
	.cfi_def_cfa_offset 16
	.cfi_offset 6, -16
	movq	%rsp, %rbp
	.cfi_def_cfa_register 6
	movq	%rdi, -8(%rbp)
	movl	%esi, %eax
	movb	%al, -12(%rbp)
	movq	-8(%rbp), %rax
	movzbl	-12(%rbp), %edx
	movb	%dl, (%rax)
	movq	-8(%rbp), %rax
	movb	$0, 1(%rax)
	nop
	popq	%rbp
	.cfi_def_cfa 7, 8
	ret
	.cfi_endproc
.LFE3026:
	.size	_ZN7TwoCharC2Ec, .-_ZN7TwoCharC2Ec
	.weak	_ZN7TwoCharC1Ec
	.set	_ZN7TwoCharC1Ec,_ZN7TwoCharC2Ec
	.section	.text._ZN7TwoCharC2Ecc,"axG",@progbits,_ZN7TwoCharC5Ecc,comdat
	.align 2
	.weak	_ZN7TwoCharC2Ecc
	.type	_ZN7TwoCharC2Ecc, @function
_ZN7TwoCharC2Ecc:
.LFB3029:
	.cfi_startproc
	pushq	%rbp
	.cfi_def_cfa_offset 16
	.cfi_offset 6, -16
	movq	%rsp, %rbp
	.cfi_def_cfa_register 6
	movq	%rdi, -8(%rbp)
	movl	%esi, %ecx
	movl	%edx, %eax
	movl	%ecx, %edx
	movb	%dl, -12(%rbp)
	movb	%al, -16(%rbp)
	movq	-8(%rbp), %rax
	movzbl	-12(%rbp), %edx
	movb	%dl, (%rax)
	movq	-8(%rbp), %rax
	movzbl	-16(%rbp), %edx
	movb	%dl, 1(%rax)
	nop
	popq	%rbp
	.cfi_def_cfa 7, 8
	ret
	.cfi_endproc
.LFE3029:
	.size	_ZN7TwoCharC2Ecc, .-_ZN7TwoCharC2Ecc
	.weak	_ZN7TwoCharC1Ecc
	.set	_ZN7TwoCharC1Ecc,_ZN7TwoCharC2Ecc
	.section	.text._ZNK7TwoChar5MatchEcc,"axG",@progbits,_ZNK7TwoChar5MatchEcc,comdat
	.align 2
	.weak	_ZNK7TwoChar5MatchEcc
	.type	_ZNK7TwoChar5MatchEcc, @function
_ZNK7TwoChar5MatchEcc:
.LFB3031:
	.cfi_startproc
	pushq	%rbp
	.cfi_def_cfa_offset 16
	.cfi_offset 6, -16
	movq	%rsp, %rbp
	.cfi_def_cfa_register 6
	movq	%rdi, -8(%rbp)
	movl	%esi, %ecx
	movl	%edx, %eax
	movl	%ecx, %edx
	movb	%dl, -12(%rbp)
	movb	%al, -16(%rbp)
	movq	-8(%rbp), %rax
	movzbl	(%rax), %eax
	cmpb	%al, -12(%rbp)
	je	.L43
	movl	$0, %eax
	jmp	.L44
.L43:
	movq	-8(%rbp), %rax
	movzbl	1(%rax), %eax
	cmpb	%al, -16(%rbp)
	jne	.L45
	movl	$2, %eax
	jmp	.L44
.L45:
	movq	-8(%rbp), %rax
	movzbl	1(%rax), %eax
	testb	%al, %al
	sete	%al
	movzbl	%al, %eax
.L44:
	popq	%rbp
	.cfi_def_cfa 7, 8
	ret
	.cfi_endproc
.LFE3031:
	.size	_ZNK7TwoChar5MatchEcc, .-_ZNK7TwoChar5MatchEcc
	.section	.text._ZNSt12_Vector_baseI7TwoCharSaIS0_EE12_Vector_implD2Ev,"axG",@progbits,_ZNSt12_Vector_baseI7TwoCharSaIS0_EE12_Vector_implD5Ev,comdat
	.align 2
	.weak	_ZNSt12_Vector_baseI7TwoCharSaIS0_EE12_Vector_implD2Ev
	.type	_ZNSt12_Vector_baseI7TwoCharSaIS0_EE12_Vector_implD2Ev, @function
_ZNSt12_Vector_baseI7TwoCharSaIS0_EE12_Vector_implD2Ev:
.LFB3038:
	.cfi_startproc
	pushq	%rbp
	.cfi_def_cfa_offset 16
	.cfi_offset 6, -16
	movq	%rsp, %rbp
	.cfi_def_cfa_register 6
	subq	$16, %rsp
	movq	%rdi, -8(%rbp)
	movq	-8(%rbp), %rax
	movq	%rax, %rdi
	call	_ZNSaI7TwoCharED2Ev
	nop
	leave
	.cfi_def_cfa 7, 8
	ret
	.cfi_endproc
.LFE3038:
	.size	_ZNSt12_Vector_baseI7TwoCharSaIS0_EE12_Vector_implD2Ev, .-_ZNSt12_Vector_baseI7TwoCharSaIS0_EE12_Vector_implD2Ev
	.weak	_ZNSt12_Vector_baseI7TwoCharSaIS0_EE12_Vector_implD1Ev
	.set	_ZNSt12_Vector_baseI7TwoCharSaIS0_EE12_Vector_implD1Ev,_ZNSt12_Vector_baseI7TwoCharSaIS0_EE12_Vector_implD2Ev
	.section	.text._ZNSt12_Vector_baseI7TwoCharSaIS0_EEC2Ev,"axG",@progbits,_ZNSt12_Vector_baseI7TwoCharSaIS0_EEC5Ev,comdat
	.align 2
	.weak	_ZNSt12_Vector_baseI7TwoCharSaIS0_EEC2Ev
	.type	_ZNSt12_Vector_baseI7TwoCharSaIS0_EEC2Ev, @function
_ZNSt12_Vector_baseI7TwoCharSaIS0_EEC2Ev:
.LFB3040:
	.cfi_startproc
	pushq	%rbp
	.cfi_def_cfa_offset 16
	.cfi_offset 6, -16
	movq	%rsp, %rbp
	.cfi_def_cfa_register 6
	subq	$16, %rsp
	movq	%rdi, -8(%rbp)
	movq	-8(%rbp), %rax
	movq	%rax, %rdi
	call	_ZNSt12_Vector_baseI7TwoCharSaIS0_EE12_Vector_implC1Ev
	nop
	leave
	.cfi_def_cfa 7, 8
	ret
	.cfi_endproc
.LFE3040:
	.size	_ZNSt12_Vector_baseI7TwoCharSaIS0_EEC2Ev, .-_ZNSt12_Vector_baseI7TwoCharSaIS0_EEC2Ev
	.weak	_ZNSt12_Vector_baseI7TwoCharSaIS0_EEC1Ev
	.set	_ZNSt12_Vector_baseI7TwoCharSaIS0_EEC1Ev,_ZNSt12_Vector_baseI7TwoCharSaIS0_EEC2Ev
	.section	.text._ZNSt6vectorI7TwoCharSaIS0_EEC2Ev,"axG",@progbits,_ZNSt6vectorI7TwoCharSaIS0_EEC5Ev,comdat
	.align 2
	.weak	_ZNSt6vectorI7TwoCharSaIS0_EEC2Ev
	.type	_ZNSt6vectorI7TwoCharSaIS0_EEC2Ev, @function
_ZNSt6vectorI7TwoCharSaIS0_EEC2Ev:
.LFB3042:
	.cfi_startproc
	pushq	%rbp
	.cfi_def_cfa_offset 16
	.cfi_offset 6, -16
	movq	%rsp, %rbp
	.cfi_def_cfa_register 6
	subq	$16, %rsp
	movq	%rdi, -8(%rbp)
	movq	-8(%rbp), %rax
	movq	%rax, %rdi
	call	_ZNSt12_Vector_baseI7TwoCharSaIS0_EEC2Ev
	nop
	leave
	.cfi_def_cfa 7, 8
	ret
	.cfi_endproc
.LFE3042:
	.size	_ZNSt6vectorI7TwoCharSaIS0_EEC2Ev, .-_ZNSt6vectorI7TwoCharSaIS0_EEC2Ev
	.weak	_ZNSt6vectorI7TwoCharSaIS0_EEC1Ev
	.set	_ZNSt6vectorI7TwoCharSaIS0_EEC1Ev,_ZNSt6vectorI7TwoCharSaIS0_EEC2Ev
	.section	.text._ZN9__gnu_cxx14__alloc_traitsISaI7TwoCharES1_E15_S_always_equalEv,"axG",@progbits,_ZN9__gnu_cxx14__alloc_traitsISaI7TwoCharES1_E15_S_always_equalEv,comdat
	.weak	_ZN9__gnu_cxx14__alloc_traitsISaI7TwoCharES1_E15_S_always_equalEv
	.type	_ZN9__gnu_cxx14__alloc_traitsISaI7TwoCharES1_E15_S_always_equalEv, @function
_ZN9__gnu_cxx14__alloc_traitsISaI7TwoCharES1_E15_S_always_equalEv:
.LFB3046:
	.cfi_startproc
	pushq	%rbp
	.cfi_def_cfa_offset 16
	.cfi_offset 6, -16
	movq	%rsp, %rbp
	.cfi_def_cfa_register 6
	movl	$1, %eax
	popq	%rbp
	.cfi_def_cfa 7, 8
	ret
	.cfi_endproc
.LFE3046:
	.size	_ZN9__gnu_cxx14__alloc_traitsISaI7TwoCharES1_E15_S_always_equalEv, .-_ZN9__gnu_cxx14__alloc_traitsISaI7TwoCharES1_E15_S_always_equalEv
	.text
	.align 2
	.globl	_ZN14CharacterGroupC2Ev
	.type	_ZN14CharacterGroupC2Ev, @function
_ZN14CharacterGroupC2Ev:
.LFB3047:
	.cfi_startproc
	pushq	%rbp
	.cfi_def_cfa_offset 16
	.cfi_offset 6, -16
	movq	%rsp, %rbp
	.cfi_def_cfa_register 6
	subq	$48, %rsp
	movq	%rdi, -40(%rbp)
	movq	-40(%rbp), %rax
	movq	%rax, %rdi
	call	_ZNSt6vectorI7TwoCharSaIS0_EEC1Ev
	pxor	%xmm0, %xmm0
	movaps	%xmm0, -32(%rbp)
	movq	%xmm0, -16(%rbp)
	leaq	-32(%rbp), %rax
	movq	%rax, %rdi
	call	_ZNSt6vectorI7TwoCharSaIS0_EEC1Ev
	movq	-40(%rbp), %rax
	leaq	-32(%rbp), %rdx
	movq	%rdx, %rsi
	movq	%rax, %rdi
	call	_ZNSt6vectorI7TwoCharSaIS0_EEaSEOS2_
	leaq	-32(%rbp), %rax
	movq	%rax, %rdi
	call	_ZNSt6vectorI7TwoCharSaIS0_EED1Ev
	nop
	leave
	.cfi_def_cfa 7, 8
	ret
	.cfi_endproc
.LFE3047:
	.size	_ZN14CharacterGroupC2Ev, .-_ZN14CharacterGroupC2Ev
	.globl	_ZN14CharacterGroupC1Ev
	.set	_ZN14CharacterGroupC1Ev,_ZN14CharacterGroupC2Ev
	.align 2
	.globl	_ZN14CharacterGroupC2ESt6vectorI7TwoCharSaIS1_EE
	.type	_ZN14CharacterGroupC2ESt6vectorI7TwoCharSaIS1_EE, @function
_ZN14CharacterGroupC2ESt6vectorI7TwoCharSaIS1_EE:
.LFB3050:
	.cfi_startproc
	.cfi_personality 0x9b,DW.ref.__gxx_personality_v0
	.cfi_lsda 0x1b,.LLSDA3050
	pushq	%rbp
	.cfi_def_cfa_offset 16
	.cfi_offset 6, -16
	movq	%rsp, %rbp
	.cfi_def_cfa_register 6
	pushq	%rbx
	subq	$24, %rsp
	.cfi_offset 3, -24
	movq	%rdi, -24(%rbp)
	movq	%rsi, -32(%rbp)
	movq	-24(%rbp), %rax
	movq	%rax, %rdi
	call	_ZNSt6vectorI7TwoCharSaIS0_EEC1Ev
	movq	-24(%rbp), %rax
	movq	-32(%rbp), %rdx
	movq	%rdx, %rsi
	movq	%rax, %rdi
.LEHB3:
	call	_ZNSt6vectorI7TwoCharSaIS0_EEaSERKS2_
.LEHE3:
	jmp	.L55
.L54:
	movq	%rax, %rbx
	movq	-24(%rbp), %rax
	movq	%rax, %rdi
	call	_ZNSt6vectorI7TwoCharSaIS0_EED1Ev
	movq	%rbx, %rax
	movq	%rax, %rdi
.LEHB4:
	call	_Unwind_Resume@PLT
.LEHE4:
.L55:
	movq	-8(%rbp), %rbx
	leave
	.cfi_def_cfa 7, 8
	ret
	.cfi_endproc
.LFE3050:
	.section	.gcc_except_table
.LLSDA3050:
	.byte	0xff
	.byte	0xff
	.byte	0x1
	.uleb128 .LLSDACSE3050-.LLSDACSB3050
.LLSDACSB3050:
	.uleb128 .LEHB3-.LFB3050
	.uleb128 .LEHE3-.LEHB3
	.uleb128 .L54-.LFB3050
	.uleb128 0
	.uleb128 .LEHB4-.LFB3050
	.uleb128 .LEHE4-.LEHB4
	.uleb128 0
	.uleb128 0
.LLSDACSE3050:
	.text
	.size	_ZN14CharacterGroupC2ESt6vectorI7TwoCharSaIS1_EE, .-_ZN14CharacterGroupC2ESt6vectorI7TwoCharSaIS1_EE
	.globl	_ZN14CharacterGroupC1ESt6vectorI7TwoCharSaIS1_EE
	.set	_ZN14CharacterGroupC1ESt6vectorI7TwoCharSaIS1_EE,_ZN14CharacterGroupC2ESt6vectorI7TwoCharSaIS1_EE
	.section	.text._ZN14CharacterGroupC2ERKS_,"axG",@progbits,_ZN14CharacterGroupC5ERKS_,comdat
	.align 2
	.weak	_ZN14CharacterGroupC2ERKS_
	.type	_ZN14CharacterGroupC2ERKS_, @function
_ZN14CharacterGroupC2ERKS_:
.LFB3054:
	.cfi_startproc
	pushq	%rbp
	.cfi_def_cfa_offset 16
	.cfi_offset 6, -16
	movq	%rsp, %rbp
	.cfi_def_cfa_register 6
	subq	$16, %rsp
	movq	%rdi, -8(%rbp)
	movq	%rsi, -16(%rbp)
	movq	-8(%rbp), %rax
	movq	-16(%rbp), %rdx
	movq	%rdx, %rsi
	movq	%rax, %rdi
	call	_ZNSt6vectorI7TwoCharSaIS0_EEC1ERKS2_
	nop
	leave
	.cfi_def_cfa 7, 8
	ret
	.cfi_endproc
.LFE3054:
	.size	_ZN14CharacterGroupC2ERKS_, .-_ZN14CharacterGroupC2ERKS_
	.weak	_ZN14CharacterGroupC1ERKS_
	.set	_ZN14CharacterGroupC1ERKS_,_ZN14CharacterGroupC2ERKS_
	.text
	.align 2
	.globl	_ZN14CharacterGroupC2ESt6vectorIS_SaIS_EE
	.type	_ZN14CharacterGroupC2ESt6vectorIS_SaIS_EE, @function
_ZN14CharacterGroupC2ESt6vectorIS_SaIS_EE:
.LFB3056:
	.cfi_startproc
	.cfi_personality 0x9b,DW.ref.__gxx_personality_v0
	.cfi_lsda 0x1b,.LLSDA3056
	pushq	%rbp
	.cfi_def_cfa_offset 16
	.cfi_offset 6, -16
	movq	%rsp, %rbp
	.cfi_def_cfa_register 6
	pushq	%rbx
	subq	$120, %rsp
	.cfi_offset 3, -24
	movq	%rdi, -120(%rbp)
	movq	%rsi, -128(%rbp)
	movq	-120(%rbp), %rax
	movq	%rax, %rdi
	call	_ZNSt6vectorI7TwoCharSaIS0_EEC1Ev
	movq	-128(%rbp), %rax
	movq	%rax, -24(%rbp)
	movq	-24(%rbp), %rax
	movq	%rax, %rdi
	call	_ZNSt6vectorI14CharacterGroupSaIS0_EE5beginEv
	movq	%rax, -72(%rbp)
	movq	-24(%rbp), %rax
	movq	%rax, %rdi
	call	_ZNSt6vectorI14CharacterGroupSaIS0_EE3endEv
	movq	%rax, -80(%rbp)
	jmp	.L58
.L61:
	leaq	-72(%rbp), %rax
	movq	%rax, %rdi
	call	_ZNK9__gnu_cxx17__normal_iteratorIP14CharacterGroupSt6vectorIS1_SaIS1_EEEdeEv
	movq	%rax, %rdx
	leaq	-64(%rbp), %rax
	movq	%rdx, %rsi
	movq	%rax, %rdi
.LEHB5:
	call	_ZN14CharacterGroupC1ERKS_
.LEHE5:
	leaq	-64(%rbp), %rax
	movq	%rax, -32(%rbp)
	movq	-32(%rbp), %rax
	movq	%rax, %rdi
	call	_ZNSt6vectorI7TwoCharSaIS0_EE5beginEv
	movq	%rax, -96(%rbp)
	movq	-32(%rbp), %rax
	movq	%rax, %rdi
	call	_ZNSt6vectorI7TwoCharSaIS0_EE3endEv
	movq	%rax, -104(%rbp)
	jmp	.L59
.L60:
	leaq	-96(%rbp), %rax
	movq	%rax, %rdi
	call	_ZNK9__gnu_cxx17__normal_iteratorIP7TwoCharSt6vectorIS1_SaIS1_EEEdeEv
	movzwl	(%rax), %eax
	movw	%ax, -82(%rbp)
	movq	-120(%rbp), %rax
	leaq	-82(%rbp), %rdx
	movq	%rdx, %rsi
	movq	%rax, %rdi
.LEHB6:
	call	_ZNSt6vectorI7TwoCharSaIS0_EE9push_backERKS0_
.LEHE6:
	leaq	-96(%rbp), %rax
	movq	%rax, %rdi
	call	_ZN9__gnu_cxx17__normal_iteratorIP7TwoCharSt6vectorIS1_SaIS1_EEEppEv
.L59:
	leaq	-104(%rbp), %rdx
	leaq	-96(%rbp), %rax
	movq	%rdx, %rsi
	movq	%rax, %rdi
	call	_ZN9__gnu_cxxneIP7TwoCharSt6vectorIS1_SaIS1_EEEEbRKNS_17__normal_iteratorIT_T0_EESB_
	testb	%al, %al
	jne	.L60
	leaq	-64(%rbp), %rax
	movq	%rax, %rdi
	call	_ZN14CharacterGroupD1Ev
	leaq	-72(%rbp), %rax
	movq	%rax, %rdi
	call	_ZN9__gnu_cxx17__normal_iteratorIP14CharacterGroupSt6vectorIS1_SaIS1_EEEppEv
.L58:
	leaq	-80(%rbp), %rdx
	leaq	-72(%rbp), %rax
	movq	%rdx, %rsi
	movq	%rax, %rdi
	call	_ZN9__gnu_cxxneIP14CharacterGroupSt6vectorIS1_SaIS1_EEEEbRKNS_17__normal_iteratorIT_T0_EESB_
	testb	%al, %al
	jne	.L61
	jmp	.L66
.L65:
	movq	%rax, %rbx
	leaq	-64(%rbp), %rax
	movq	%rax, %rdi
	call	_ZN14CharacterGroupD1Ev
	jmp	.L63
.L64:
	movq	%rax, %rbx
.L63:
	movq	-120(%rbp), %rax
	movq	%rax, %rdi
	call	_ZNSt6vectorI7TwoCharSaIS0_EED1Ev
	movq	%rbx, %rax
	movq	%rax, %rdi
.LEHB7:
	call	_Unwind_Resume@PLT
.LEHE7:
.L66:
	movq	-8(%rbp), %rbx
	leave
	.cfi_def_cfa 7, 8
	ret
	.cfi_endproc
.LFE3056:
	.section	.gcc_except_table
.LLSDA3056:
	.byte	0xff
	.byte	0xff
	.byte	0x1
	.uleb128 .LLSDACSE3056-.LLSDACSB3056
.LLSDACSB3056:
	.uleb128 .LEHB5-.LFB3056
	.uleb128 .LEHE5-.LEHB5
	.uleb128 .L64-.LFB3056
	.uleb128 0
	.uleb128 .LEHB6-.LFB3056
	.uleb128 .LEHE6-.LEHB6
	.uleb128 .L65-.LFB3056
	.uleb128 0
	.uleb128 .LEHB7-.LFB3056
	.uleb128 .LEHE7-.LEHB7
	.uleb128 0
	.uleb128 0
.LLSDACSE3056:
	.text
	.size	_ZN14CharacterGroupC2ESt6vectorIS_SaIS_EE, .-_ZN14CharacterGroupC2ESt6vectorIS_SaIS_EE
	.globl	_ZN14CharacterGroupC1ESt6vectorIS_SaIS_EE
	.set	_ZN14CharacterGroupC1ESt6vectorIS_SaIS_EE,_ZN14CharacterGroupC2ESt6vectorIS_SaIS_EE
	.align 2
	.globl	_ZN14CharacterGroupC2ESt6vectorI7TwoCharSaIS1_EES0_IS_SaIS_EE
	.type	_ZN14CharacterGroupC2ESt6vectorI7TwoCharSaIS1_EES0_IS_SaIS_EE, @function
_ZN14CharacterGroupC2ESt6vectorI7TwoCharSaIS1_EES0_IS_SaIS_EE:
.LFB3059:
	.cfi_startproc
	.cfi_personality 0x9b,DW.ref.__gxx_personality_v0
	.cfi_lsda 0x1b,.LLSDA3059
	pushq	%rbp
	.cfi_def_cfa_offset 16
	.cfi_offset 6, -16
	movq	%rsp, %rbp
	.cfi_def_cfa_register 6
	pushq	%rbx
	subq	$136, %rsp
	.cfi_offset 3, -24
	movq	%rdi, -120(%rbp)
	movq	%rsi, -128(%rbp)
	movq	%rdx, -136(%rbp)
	movq	-120(%rbp), %rax
	movq	%rax, %rdi
	call	_ZNSt6vectorI7TwoCharSaIS0_EEC1Ev
	movq	-120(%rbp), %rax
	movq	-128(%rbp), %rdx
	movq	%rdx, %rsi
	movq	%rax, %rdi
.LEHB8:
	call	_ZNSt6vectorI7TwoCharSaIS0_EEaSERKS2_
	movq	-136(%rbp), %rax
	movq	%rax, -24(%rbp)
	movq	-24(%rbp), %rax
	movq	%rax, %rdi
	call	_ZNSt6vectorI14CharacterGroupSaIS0_EE5beginEv
	movq	%rax, -72(%rbp)
	movq	-24(%rbp), %rax
	movq	%rax, %rdi
	call	_ZNSt6vectorI14CharacterGroupSaIS0_EE3endEv
	movq	%rax, -80(%rbp)
	jmp	.L68
.L71:
	leaq	-72(%rbp), %rax
	movq	%rax, %rdi
	call	_ZNK9__gnu_cxx17__normal_iteratorIP14CharacterGroupSt6vectorIS1_SaIS1_EEEdeEv
	movq	%rax, %rdx
	leaq	-64(%rbp), %rax
	movq	%rdx, %rsi
	movq	%rax, %rdi
	call	_ZN14CharacterGroupC1ERKS_
.LEHE8:
	leaq	-64(%rbp), %rax
	movq	%rax, -32(%rbp)
	movq	-32(%rbp), %rax
	movq	%rax, %rdi
	call	_ZNSt6vectorI7TwoCharSaIS0_EE5beginEv
	movq	%rax, -96(%rbp)
	movq	-32(%rbp), %rax
	movq	%rax, %rdi
	call	_ZNSt6vectorI7TwoCharSaIS0_EE3endEv
	movq	%rax, -104(%rbp)
	jmp	.L69
.L70:
	leaq	-96(%rbp), %rax
	movq	%rax, %rdi
	call	_ZNK9__gnu_cxx17__normal_iteratorIP7TwoCharSt6vectorIS1_SaIS1_EEEdeEv
	movzwl	(%rax), %eax
	movw	%ax, -82(%rbp)
	movq	-120(%rbp), %rax
	leaq	-82(%rbp), %rdx
	movq	%rdx, %rsi
	movq	%rax, %rdi
.LEHB9:
	call	_ZNSt6vectorI7TwoCharSaIS0_EE9push_backERKS0_
.LEHE9:
	leaq	-96(%rbp), %rax
	movq	%rax, %rdi
	call	_ZN9__gnu_cxx17__normal_iteratorIP7TwoCharSt6vectorIS1_SaIS1_EEEppEv
.L69:
	leaq	-104(%rbp), %rdx
	leaq	-96(%rbp), %rax
	movq	%rdx, %rsi
	movq	%rax, %rdi
	call	_ZN9__gnu_cxxneIP7TwoCharSt6vectorIS1_SaIS1_EEEEbRKNS_17__normal_iteratorIT_T0_EESB_
	testb	%al, %al
	jne	.L70
	leaq	-64(%rbp), %rax
	movq	%rax, %rdi
	call	_ZN14CharacterGroupD1Ev
	leaq	-72(%rbp), %rax
	movq	%rax, %rdi
	call	_ZN9__gnu_cxx17__normal_iteratorIP14CharacterGroupSt6vectorIS1_SaIS1_EEEppEv
.L68:
	leaq	-80(%rbp), %rdx
	leaq	-72(%rbp), %rax
	movq	%rdx, %rsi
	movq	%rax, %rdi
	call	_ZN9__gnu_cxxneIP14CharacterGroupSt6vectorIS1_SaIS1_EEEEbRKNS_17__normal_iteratorIT_T0_EESB_
	testb	%al, %al
	jne	.L71
	jmp	.L76
.L75:
	movq	%rax, %rbx
	leaq	-64(%rbp), %rax
	movq	%rax, %rdi
	call	_ZN14CharacterGroupD1Ev
	jmp	.L73
.L74:
	movq	%rax, %rbx
.L73:
	movq	-120(%rbp), %rax
	movq	%rax, %rdi
	call	_ZNSt6vectorI7TwoCharSaIS0_EED1Ev
	movq	%rbx, %rax
	movq	%rax, %rdi
.LEHB10:
	call	_Unwind_Resume@PLT
.LEHE10:
.L76:
	movq	-8(%rbp), %rbx
	leave
	.cfi_def_cfa 7, 8
	ret
	.cfi_endproc
.LFE3059:
	.section	.gcc_except_table
.LLSDA3059:
	.byte	0xff
	.byte	0xff
	.byte	0x1
	.uleb128 .LLSDACSE3059-.LLSDACSB3059
.LLSDACSB3059:
	.uleb128 .LEHB8-.LFB3059
	.uleb128 .LEHE8-.LEHB8
	.uleb128 .L74-.LFB3059
	.uleb128 0
	.uleb128 .LEHB9-.LFB3059
	.uleb128 .LEHE9-.LEHB9
	.uleb128 .L75-.LFB3059
	.uleb128 0
	.uleb128 .LEHB10-.LFB3059
	.uleb128 .LEHE10-.LEHB10
	.uleb128 0
	.uleb128 0
.LLSDACSE3059:
	.text
	.size	_ZN14CharacterGroupC2ESt6vectorI7TwoCharSaIS1_EES0_IS_SaIS_EE, .-_ZN14CharacterGroupC2ESt6vectorI7TwoCharSaIS1_EES0_IS_SaIS_EE
	.globl	_ZN14CharacterGroupC1ESt6vectorI7TwoCharSaIS1_EES0_IS_SaIS_EE
	.set	_ZN14CharacterGroupC1ESt6vectorI7TwoCharSaIS1_EES0_IS_SaIS_EE,_ZN14CharacterGroupC2ESt6vectorI7TwoCharSaIS1_EES0_IS_SaIS_EE
	.align 2
	.globl	_ZN14CharacterGroupD2Ev
	.type	_ZN14CharacterGroupD2Ev, @function
_ZN14CharacterGroupD2Ev:
.LFB3062:
	.cfi_startproc
	pushq	%rbp
	.cfi_def_cfa_offset 16
	.cfi_offset 6, -16
	movq	%rsp, %rbp
	.cfi_def_cfa_register 6
	subq	$16, %rsp
	movq	%rdi, -8(%rbp)
	movq	-8(%rbp), %rax
	movq	%rax, %rdi
	call	_ZNSt6vectorI7TwoCharSaIS0_EED1Ev
	nop
	leave
	.cfi_def_cfa 7, 8
	ret
	.cfi_endproc
.LFE3062:
	.size	_ZN14CharacterGroupD2Ev, .-_ZN14CharacterGroupD2Ev
	.globl	_ZN14CharacterGroupD1Ev
	.set	_ZN14CharacterGroupD1Ev,_ZN14CharacterGroupD2Ev
	.align 2
	.globl	_ZN14CharacterGroup5MatchEcc
	.type	_ZN14CharacterGroup5MatchEcc, @function
_ZN14CharacterGroup5MatchEcc:
.LFB3064:
	.cfi_startproc
	pushq	%rbp
	.cfi_def_cfa_offset 16
	.cfi_offset 6, -16
	movq	%rsp, %rbp
	.cfi_def_cfa_register 6
	subq	$64, %rsp
	movq	%rdi, -56(%rbp)
	movl	%esi, %ecx
	movl	%edx, %eax
	movl	%ecx, %edx
	movb	%dl, -60(%rbp)
	movb	%al, -64(%rbp)
	movl	$0, -4(%rbp)
	movq	-56(%rbp), %rax
	movq	%rax, -16(%rbp)
	movq	-16(%rbp), %rax
	movq	%rax, %rdi
	call	_ZNSt6vectorI7TwoCharSaIS0_EE5beginEv
	movq	%rax, -32(%rbp)
	movq	-16(%rbp), %rax
	movq	%rax, %rdi
	call	_ZNSt6vectorI7TwoCharSaIS0_EE3endEv
	movq	%rax, -40(%rbp)
	jmp	.L79
.L82:
	leaq	-32(%rbp), %rax
	movq	%rax, %rdi
	call	_ZNK9__gnu_cxx17__normal_iteratorIP7TwoCharSt6vectorIS1_SaIS1_EEEdeEv
	movzwl	(%rax), %eax
	movw	%ax, -18(%rbp)
	movsbl	-64(%rbp), %edx
	movsbl	-60(%rbp), %ecx
	leaq	-18(%rbp), %rax
	movl	%ecx, %esi
	movq	%rax, %rdi
	call	_ZNK7TwoChar5MatchEcc
	movl	%eax, -4(%rbp)
	cmpl	$0, -4(%rbp)
	je	.L80
	movl	-4(%rbp), %eax
	jmp	.L81
.L80:
	leaq	-32(%rbp), %rax
	movq	%rax, %rdi
	call	_ZN9__gnu_cxx17__normal_iteratorIP7TwoCharSt6vectorIS1_SaIS1_EEEppEv
.L79:
	leaq	-40(%rbp), %rdx
	leaq	-32(%rbp), %rax
	movq	%rdx, %rsi
	movq	%rax, %rdi
	call	_ZN9__gnu_cxxneIP7TwoCharSt6vectorIS1_SaIS1_EEEEbRKNS_17__normal_iteratorIT_T0_EESB_
	testb	%al, %al
	jne	.L82
	movl	$0, %eax
.L81:
	leave
	.cfi_def_cfa 7, 8
	ret
	.cfi_endproc
.LFE3064:
	.size	_ZN14CharacterGroup5MatchEcc, .-_ZN14CharacterGroup5MatchEcc
	.align 2
	.globl	_ZN13AbstractTokenC2ENSt7__cxx1112basic_stringIcSt11char_traitsIcESaIcEEE
	.type	_ZN13AbstractTokenC2ENSt7__cxx1112basic_stringIcSt11char_traitsIcESaIcEEE, @function
_ZN13AbstractTokenC2ENSt7__cxx1112basic_stringIcSt11char_traitsIcESaIcEEE:
.LFB3067:
	.cfi_startproc
	.cfi_personality 0x9b,DW.ref.__gxx_personality_v0
	.cfi_lsda 0x1b,.LLSDA3067
	pushq	%rbp
	.cfi_def_cfa_offset 16
	.cfi_offset 6, -16
	movq	%rsp, %rbp
	.cfi_def_cfa_register 6
	pushq	%rbx
	subq	$24, %rsp
	.cfi_offset 3, -24
	movq	%rdi, -24(%rbp)
	movq	%rsi, -32(%rbp)
	leaq	16+_ZTV13AbstractToken(%rip), %rdx
	movq	-24(%rbp), %rax
	movq	%rdx, (%rax)
	movq	-24(%rbp), %rax
	addq	$8, %rax
	movq	%rax, %rdi
	call	_ZNSt7__cxx1112basic_stringIcSt11char_traitsIcESaIcEEC1Ev@PLT
	movq	-24(%rbp), %rax
	leaq	8(%rax), %rdx
	movq	-32(%rbp), %rax
	movq	%rax, %rsi
	movq	%rdx, %rdi
.LEHB11:
	call	_ZNSt7__cxx1112basic_stringIcSt11char_traitsIcESaIcEEaSERKS4_@PLT
.LEHE11:
	jmp	.L86
.L85:
	movq	%rax, %rbx
	movq	-24(%rbp), %rax
	addq	$8, %rax
	movq	%rax, %rdi
	call	_ZNSt7__cxx1112basic_stringIcSt11char_traitsIcESaIcEED1Ev@PLT
	movq	%rbx, %rax
	movq	%rax, %rdi
.LEHB12:
	call	_Unwind_Resume@PLT
.LEHE12:
.L86:
	movq	-8(%rbp), %rbx
	leave
	.cfi_def_cfa 7, 8
	ret
	.cfi_endproc
.LFE3067:
	.section	.gcc_except_table
.LLSDA3067:
	.byte	0xff
	.byte	0xff
	.byte	0x1
	.uleb128 .LLSDACSE3067-.LLSDACSB3067
.LLSDACSB3067:
	.uleb128 .LEHB11-.LFB3067
	.uleb128 .LEHE11-.LEHB11
	.uleb128 .L85-.LFB3067
	.uleb128 0
	.uleb128 .LEHB12-.LFB3067
	.uleb128 .LEHE12-.LEHB12
	.uleb128 0
	.uleb128 0
.LLSDACSE3067:
	.text
	.size	_ZN13AbstractTokenC2ENSt7__cxx1112basic_stringIcSt11char_traitsIcESaIcEEE, .-_ZN13AbstractTokenC2ENSt7__cxx1112basic_stringIcSt11char_traitsIcESaIcEEE
	.globl	_ZN13AbstractTokenC1ENSt7__cxx1112basic_stringIcSt11char_traitsIcESaIcEEE
	.set	_ZN13AbstractTokenC1ENSt7__cxx1112basic_stringIcSt11char_traitsIcESaIcEEE,_ZN13AbstractTokenC2ENSt7__cxx1112basic_stringIcSt11char_traitsIcESaIcEEE
	.align 2
	.globl	_ZN13AbstractTokenD2Ev
	.type	_ZN13AbstractTokenD2Ev, @function
_ZN13AbstractTokenD2Ev:
.LFB3070:
	.cfi_startproc
	pushq	%rbp
	.cfi_def_cfa_offset 16
	.cfi_offset 6, -16
	movq	%rsp, %rbp
	.cfi_def_cfa_register 6
	subq	$16, %rsp
	movq	%rdi, -8(%rbp)
	leaq	16+_ZTV13AbstractToken(%rip), %rdx
	movq	-8(%rbp), %rax
	movq	%rdx, (%rax)
	movq	-8(%rbp), %rax
	addq	$8, %rax
	movq	%rax, %rdi
	call	_ZNSt7__cxx1112basic_stringIcSt11char_traitsIcESaIcEED1Ev@PLT
	nop
	leave
	.cfi_def_cfa 7, 8
	ret
	.cfi_endproc
.LFE3070:
	.size	_ZN13AbstractTokenD2Ev, .-_ZN13AbstractTokenD2Ev
	.globl	_ZN13AbstractTokenD1Ev
	.set	_ZN13AbstractTokenD1Ev,_ZN13AbstractTokenD2Ev
	.align 2
	.globl	_ZN13AbstractTokenD0Ev
	.type	_ZN13AbstractTokenD0Ev, @function
_ZN13AbstractTokenD0Ev:
.LFB3072:
	.cfi_startproc
	pushq	%rbp
	.cfi_def_cfa_offset 16
	.cfi_offset 6, -16
	movq	%rsp, %rbp
	.cfi_def_cfa_register 6
	subq	$16, %rsp
	movq	%rdi, -8(%rbp)
	movq	-8(%rbp), %rax
	movq	%rax, %rdi
	call	_ZN13AbstractTokenD1Ev
	movq	-8(%rbp), %rax
	movl	$40, %esi
	movq	%rax, %rdi
	call	_ZdlPvm@PLT
	leave
	.cfi_def_cfa 7, 8
	ret
	.cfi_endproc
.LFE3072:
	.size	_ZN13AbstractTokenD0Ev, .-_ZN13AbstractTokenD0Ev
	.align 2
	.globl	_ZN13AbstractToken11IsThisTokenESt10shared_ptrIS_E
	.type	_ZN13AbstractToken11IsThisTokenESt10shared_ptrIS_E, @function
_ZN13AbstractToken11IsThisTokenESt10shared_ptrIS_E:
.LFB3073:
	.cfi_startproc
	pushq	%rbp
	.cfi_def_cfa_offset 16
	.cfi_offset 6, -16
	movq	%rsp, %rbp
	.cfi_def_cfa_register 6
	subq	$16, %rsp
	movq	%rdi, -8(%rbp)
	movq	%rsi, -16(%rbp)
	movq	-16(%rbp), %rax
	movq	%rax, %rdi
	call	_ZNKSt19__shared_ptr_accessI13AbstractTokenLN9__gnu_cxx12_Lock_policyE2ELb0ELb0EEptEv
	leaq	8(%rax), %rdx
	movq	-8(%rbp), %rax
	addq	$8, %rax
	movq	%rdx, %rsi
	movq	%rax, %rdi
	call	_ZSteqIcEN9__gnu_cxx11__enable_ifIXsrSt9__is_charIT_E7__valueEbE6__typeERKNSt7__cxx1112basic_stringIS3_St11char_traitsIS3_ESaIS3_EEESE_
	leave
	.cfi_def_cfa 7, 8
	ret
	.cfi_endproc
.LFE3073:
	.size	_ZN13AbstractToken11IsThisTokenESt10shared_ptrIS_E, .-_ZN13AbstractToken11IsThisTokenESt10shared_ptrIS_E
	.align 2
	.globl	_ZN13AbstractToken9IsKeywordEv
	.type	_ZN13AbstractToken9IsKeywordEv, @function
_ZN13AbstractToken9IsKeywordEv:
.LFB3074:
	.cfi_startproc
	pushq	%rbp
	.cfi_def_cfa_offset 16
	.cfi_offset 6, -16
	movq	%rsp, %rbp
	.cfi_def_cfa_register 6
	movq	%rdi, -8(%rbp)
	movl	$0, %eax
	popq	%rbp
	.cfi_def_cfa 7, 8
	ret
	.cfi_endproc
.LFE3074:
	.size	_ZN13AbstractToken9IsKeywordEv, .-_ZN13AbstractToken9IsKeywordEv
	.align 2
	.globl	_ZN13AbstractToken8ToStringB5cxx11Ev
	.type	_ZN13AbstractToken8ToStringB5cxx11Ev, @function
_ZN13AbstractToken8ToStringB5cxx11Ev:
.LFB3075:
	.cfi_startproc
	pushq	%rbp
	.cfi_def_cfa_offset 16
	.cfi_offset 6, -16
	movq	%rsp, %rbp
	.cfi_def_cfa_register 6
	subq	$16, %rsp
	movq	%rdi, -8(%rbp)
	movq	%rsi, -16(%rbp)
	movq	-16(%rbp), %rax
	leaq	8(%rax), %rdx
	movq	-8(%rbp), %rax
	movq	%rdx, %rsi
	movq	%rax, %rdi
	call	_ZNSt7__cxx1112basic_stringIcSt11char_traitsIcESaIcEEC1ERKS4_@PLT
	movq	-8(%rbp), %rax
	leave
	.cfi_def_cfa 7, 8
	ret
	.cfi_endproc
.LFE3075:
	.size	_ZN13AbstractToken8ToStringB5cxx11Ev, .-_ZN13AbstractToken8ToStringB5cxx11Ev
	.section	.text._ZNSt12_Vector_baseISt10shared_ptrI13AbstractTokenESaIS2_EE12_Vector_implD2Ev,"axG",@progbits,_ZNSt12_Vector_baseISt10shared_ptrI13AbstractTokenESaIS2_EE12_Vector_implD5Ev,comdat
	.align 2
	.weak	_ZNSt12_Vector_baseISt10shared_ptrI13AbstractTokenESaIS2_EE12_Vector_implD2Ev
	.type	_ZNSt12_Vector_baseISt10shared_ptrI13AbstractTokenESaIS2_EE12_Vector_implD2Ev, @function
_ZNSt12_Vector_baseISt10shared_ptrI13AbstractTokenESaIS2_EE12_Vector_implD2Ev:
.LFB3080:
	.cfi_startproc
	pushq	%rbp
	.cfi_def_cfa_offset 16
	.cfi_offset 6, -16
	movq	%rsp, %rbp
	.cfi_def_cfa_register 6
	subq	$16, %rsp
	movq	%rdi, -8(%rbp)
	movq	-8(%rbp), %rax
	movq	%rax, %rdi
	call	_ZNSaISt10shared_ptrI13AbstractTokenEED2Ev
	nop
	leave
	.cfi_def_cfa 7, 8
	ret
	.cfi_endproc
.LFE3080:
	.size	_ZNSt12_Vector_baseISt10shared_ptrI13AbstractTokenESaIS2_EE12_Vector_implD2Ev, .-_ZNSt12_Vector_baseISt10shared_ptrI13AbstractTokenESaIS2_EE12_Vector_implD2Ev
	.weak	_ZNSt12_Vector_baseISt10shared_ptrI13AbstractTokenESaIS2_EE12_Vector_implD1Ev
	.set	_ZNSt12_Vector_baseISt10shared_ptrI13AbstractTokenESaIS2_EE12_Vector_implD1Ev,_ZNSt12_Vector_baseISt10shared_ptrI13AbstractTokenESaIS2_EE12_Vector_implD2Ev
	.section	.text._ZNSt12_Vector_baseISt10shared_ptrI13AbstractTokenESaIS2_EEC2Ev,"axG",@progbits,_ZNSt12_Vector_baseISt10shared_ptrI13AbstractTokenESaIS2_EEC5Ev,comdat
	.align 2
	.weak	_ZNSt12_Vector_baseISt10shared_ptrI13AbstractTokenESaIS2_EEC2Ev
	.type	_ZNSt12_Vector_baseISt10shared_ptrI13AbstractTokenESaIS2_EEC2Ev, @function
_ZNSt12_Vector_baseISt10shared_ptrI13AbstractTokenESaIS2_EEC2Ev:
.LFB3082:
	.cfi_startproc
	pushq	%rbp
	.cfi_def_cfa_offset 16
	.cfi_offset 6, -16
	movq	%rsp, %rbp
	.cfi_def_cfa_register 6
	subq	$16, %rsp
	movq	%rdi, -8(%rbp)
	movq	-8(%rbp), %rax
	movq	%rax, %rdi
	call	_ZNSt12_Vector_baseISt10shared_ptrI13AbstractTokenESaIS2_EE12_Vector_implC1Ev
	nop
	leave
	.cfi_def_cfa 7, 8
	ret
	.cfi_endproc
.LFE3082:
	.size	_ZNSt12_Vector_baseISt10shared_ptrI13AbstractTokenESaIS2_EEC2Ev, .-_ZNSt12_Vector_baseISt10shared_ptrI13AbstractTokenESaIS2_EEC2Ev
	.weak	_ZNSt12_Vector_baseISt10shared_ptrI13AbstractTokenESaIS2_EEC1Ev
	.set	_ZNSt12_Vector_baseISt10shared_ptrI13AbstractTokenESaIS2_EEC1Ev,_ZNSt12_Vector_baseISt10shared_ptrI13AbstractTokenESaIS2_EEC2Ev
	.section	.text._ZNSt6vectorISt10shared_ptrI13AbstractTokenESaIS2_EEC2Ev,"axG",@progbits,_ZNSt6vectorISt10shared_ptrI13AbstractTokenESaIS2_EEC5Ev,comdat
	.align 2
	.weak	_ZNSt6vectorISt10shared_ptrI13AbstractTokenESaIS2_EEC2Ev
	.type	_ZNSt6vectorISt10shared_ptrI13AbstractTokenESaIS2_EEC2Ev, @function
_ZNSt6vectorISt10shared_ptrI13AbstractTokenESaIS2_EEC2Ev:
.LFB3084:
	.cfi_startproc
	pushq	%rbp
	.cfi_def_cfa_offset 16
	.cfi_offset 6, -16
	movq	%rsp, %rbp
	.cfi_def_cfa_register 6
	subq	$16, %rsp
	movq	%rdi, -8(%rbp)
	movq	-8(%rbp), %rax
	movq	%rax, %rdi
	call	_ZNSt12_Vector_baseISt10shared_ptrI13AbstractTokenESaIS2_EEC2Ev
	nop
	leave
	.cfi_def_cfa 7, 8
	ret
	.cfi_endproc
.LFE3084:
	.size	_ZNSt6vectorISt10shared_ptrI13AbstractTokenESaIS2_EEC2Ev, .-_ZNSt6vectorISt10shared_ptrI13AbstractTokenESaIS2_EEC2Ev
	.weak	_ZNSt6vectorISt10shared_ptrI13AbstractTokenESaIS2_EEC1Ev
	.set	_ZNSt6vectorISt10shared_ptrI13AbstractTokenESaIS2_EEC1Ev,_ZNSt6vectorISt10shared_ptrI13AbstractTokenESaIS2_EEC2Ev
	.text
	.align 2
	.globl	_ZN9TokenListC2Ev
	.type	_ZN9TokenListC2Ev, @function
_ZN9TokenListC2Ev:
.LFB3088:
	.cfi_startproc
	pushq	%rbp
	.cfi_def_cfa_offset 16
	.cfi_offset 6, -16
	movq	%rsp, %rbp
	.cfi_def_cfa_register 6
	subq	$16, %rsp
	movq	%rdi, -8(%rbp)
	movq	-8(%rbp), %rax
	pxor	%xmm0, %xmm0
	movups	%xmm0, (%rax)
	movq	%xmm0, 16(%rax)
	movq	-8(%rbp), %rax
	movq	%rax, %rdi
	call	_ZNSt6vectorISt10shared_ptrI13AbstractTokenESaIS2_EEC1Ev
	movq	-8(%rbp), %rax
	movl	$0, 24(%rax)
	nop
	leave
	.cfi_def_cfa 7, 8
	ret
	.cfi_endproc
.LFE3088:
	.size	_ZN9TokenListC2Ev, .-_ZN9TokenListC2Ev
	.globl	_ZN9TokenListC1Ev
	.set	_ZN9TokenListC1Ev,_ZN9TokenListC2Ev
	.align 2
	.globl	_ZN9TokenListD2Ev
	.type	_ZN9TokenListD2Ev, @function
_ZN9TokenListD2Ev:
.LFB3091:
	.cfi_startproc
	pushq	%rbp
	.cfi_def_cfa_offset 16
	.cfi_offset 6, -16
	movq	%rsp, %rbp
	.cfi_def_cfa_register 6
	subq	$16, %rsp
	movq	%rdi, -8(%rbp)
	movq	-8(%rbp), %rax
	movq	%rax, %rdi
	call	_ZNSt6vectorISt10shared_ptrI13AbstractTokenESaIS2_EED1Ev
	nop
	leave
	.cfi_def_cfa 7, 8
	ret
	.cfi_endproc
.LFE3091:
	.size	_ZN9TokenListD2Ev, .-_ZN9TokenListD2Ev
	.globl	_ZN9TokenListD1Ev
	.set	_ZN9TokenListD1Ev,_ZN9TokenListD2Ev
	.align 2
	.globl	_ZN9TokenList8AddTokenESt10shared_ptrI13AbstractTokenE
	.type	_ZN9TokenList8AddTokenESt10shared_ptrI13AbstractTokenE, @function
_ZN9TokenList8AddTokenESt10shared_ptrI13AbstractTokenE:
.LFB3093:
	.cfi_startproc
	pushq	%rbp
	.cfi_def_cfa_offset 16
	.cfi_offset 6, -16
	movq	%rsp, %rbp
	.cfi_def_cfa_register 6
	subq	$16, %rsp
	movq	%rdi, -8(%rbp)
	movq	%rsi, -16(%rbp)
	movq	-8(%rbp), %rax
	movq	-16(%rbp), %rdx
	movq	%rdx, %rsi
	movq	%rax, %rdi
	call	_ZNSt6vectorISt10shared_ptrI13AbstractTokenESaIS2_EE9push_backERKS2_
	nop
	leave
	.cfi_def_cfa 7, 8
	ret
	.cfi_endproc
.LFE3093:
	.size	_ZN9TokenList8AddTokenESt10shared_ptrI13AbstractTokenE, .-_ZN9TokenList8AddTokenESt10shared_ptrI13AbstractTokenE
	.align 2
	.globl	_ZN9TokenList7GetSizeEv
	.type	_ZN9TokenList7GetSizeEv, @function
_ZN9TokenList7GetSizeEv:
.LFB3094:
	.cfi_startproc
	pushq	%rbp
	.cfi_def_cfa_offset 16
	.cfi_offset 6, -16
	movq	%rsp, %rbp
	.cfi_def_cfa_register 6
	subq	$16, %rsp
	movq	%rdi, -8(%rbp)
	movq	-8(%rbp), %rax
	movq	%rax, %rdi
	call	_ZNKSt6vectorISt10shared_ptrI13AbstractTokenESaIS2_EE4sizeEv
	leave
	.cfi_def_cfa 7, 8
	ret
	.cfi_endproc
.LFE3094:
	.size	_ZN9TokenList7GetSizeEv, .-_ZN9TokenList7GetSizeEv
	.section	.text._ZNSt12__shared_ptrI13AbstractTokenLN9__gnu_cxx12_Lock_policyE2EEC2ERKS3_,"axG",@progbits,_ZNSt12__shared_ptrI13AbstractTokenLN9__gnu_cxx12_Lock_policyE2EEC5ERKS3_,comdat
	.align 2
	.weak	_ZNSt12__shared_ptrI13AbstractTokenLN9__gnu_cxx12_Lock_policyE2EEC2ERKS3_
	.type	_ZNSt12__shared_ptrI13AbstractTokenLN9__gnu_cxx12_Lock_policyE2EEC2ERKS3_, @function
_ZNSt12__shared_ptrI13AbstractTokenLN9__gnu_cxx12_Lock_policyE2EEC2ERKS3_:
.LFB3099:
	.cfi_startproc
	pushq	%rbp
	.cfi_def_cfa_offset 16
	.cfi_offset 6, -16
	movq	%rsp, %rbp
	.cfi_def_cfa_register 6
	subq	$16, %rsp
	movq	%rdi, -8(%rbp)
	movq	%rsi, -16(%rbp)
	movq	-16(%rbp), %rax
	movq	(%rax), %rdx
	movq	-8(%rbp), %rax
	movq	%rdx, (%rax)
	movq	-8(%rbp), %rax
	addq	$8, %rax
	movq	-16(%rbp), %rdx
	addq	$8, %rdx
	movq	%rdx, %rsi
	movq	%rax, %rdi
	call	_ZNSt14__shared_countILN9__gnu_cxx12_Lock_policyE2EEC1ERKS2_
	nop
	leave
	.cfi_def_cfa 7, 8
	ret
	.cfi_endproc
.LFE3099:
	.size	_ZNSt12__shared_ptrI13AbstractTokenLN9__gnu_cxx12_Lock_policyE2EEC2ERKS3_, .-_ZNSt12__shared_ptrI13AbstractTokenLN9__gnu_cxx12_Lock_policyE2EEC2ERKS3_
	.weak	_ZNSt12__shared_ptrI13AbstractTokenLN9__gnu_cxx12_Lock_policyE2EEC1ERKS3_
	.set	_ZNSt12__shared_ptrI13AbstractTokenLN9__gnu_cxx12_Lock_policyE2EEC1ERKS3_,_ZNSt12__shared_ptrI13AbstractTokenLN9__gnu_cxx12_Lock_policyE2EEC2ERKS3_
	.section	.text._ZNSt12__shared_ptrI13AbstractTokenLN9__gnu_cxx12_Lock_policyE2EED2Ev,"axG",@progbits,_ZNSt12__shared_ptrI13AbstractTokenLN9__gnu_cxx12_Lock_policyE2EED5Ev,comdat
	.align 2
	.weak	_ZNSt12__shared_ptrI13AbstractTokenLN9__gnu_cxx12_Lock_policyE2EED2Ev
	.type	_ZNSt12__shared_ptrI13AbstractTokenLN9__gnu_cxx12_Lock_policyE2EED2Ev, @function
_ZNSt12__shared_ptrI13AbstractTokenLN9__gnu_cxx12_Lock_policyE2EED2Ev:
.LFB3102:
	.cfi_startproc
	pushq	%rbp
	.cfi_def_cfa_offset 16
	.cfi_offset 6, -16
	movq	%rsp, %rbp
	.cfi_def_cfa_register 6
	subq	$16, %rsp
	movq	%rdi, -8(%rbp)
	movq	-8(%rbp), %rax
	addq	$8, %rax
	movq	%rax, %rdi
	call	_ZNSt14__shared_countILN9__gnu_cxx12_Lock_policyE2EED1Ev
	nop
	leave
	.cfi_def_cfa 7, 8
	ret
	.cfi_endproc
.LFE3102:
	.size	_ZNSt12__shared_ptrI13AbstractTokenLN9__gnu_cxx12_Lock_policyE2EED2Ev, .-_ZNSt12__shared_ptrI13AbstractTokenLN9__gnu_cxx12_Lock_policyE2EED2Ev
	.weak	_ZNSt12__shared_ptrI13AbstractTokenLN9__gnu_cxx12_Lock_policyE2EED1Ev
	.set	_ZNSt12__shared_ptrI13AbstractTokenLN9__gnu_cxx12_Lock_policyE2EED1Ev,_ZNSt12__shared_ptrI13AbstractTokenLN9__gnu_cxx12_Lock_policyE2EED2Ev
	.section	.text._ZNSt10shared_ptrI13AbstractTokenEC2ERKS1_,"axG",@progbits,_ZNSt10shared_ptrI13AbstractTokenEC5ERKS1_,comdat
	.align 2
	.weak	_ZNSt10shared_ptrI13AbstractTokenEC2ERKS1_
	.type	_ZNSt10shared_ptrI13AbstractTokenEC2ERKS1_, @function
_ZNSt10shared_ptrI13AbstractTokenEC2ERKS1_:
.LFB3104:
	.cfi_startproc
	pushq	%rbp
	.cfi_def_cfa_offset 16
	.cfi_offset 6, -16
	movq	%rsp, %rbp
	.cfi_def_cfa_register 6
	subq	$16, %rsp
	movq	%rdi, -8(%rbp)
	movq	%rsi, -16(%rbp)
	movq	-8(%rbp), %rax
	movq	-16(%rbp), %rdx
	movq	%rdx, %rsi
	movq	%rax, %rdi
	call	_ZNSt12__shared_ptrI13AbstractTokenLN9__gnu_cxx12_Lock_policyE2EEC2ERKS3_
	nop
	leave
	.cfi_def_cfa 7, 8
	ret
	.cfi_endproc
.LFE3104:
	.size	_ZNSt10shared_ptrI13AbstractTokenEC2ERKS1_, .-_ZNSt10shared_ptrI13AbstractTokenEC2ERKS1_
	.weak	_ZNSt10shared_ptrI13AbstractTokenEC1ERKS1_
	.set	_ZNSt10shared_ptrI13AbstractTokenEC1ERKS1_,_ZNSt10shared_ptrI13AbstractTokenEC2ERKS1_
	.section	.text._ZNSt10shared_ptrI13AbstractTokenED2Ev,"axG",@progbits,_ZNSt10shared_ptrI13AbstractTokenED5Ev,comdat
	.align 2
	.weak	_ZNSt10shared_ptrI13AbstractTokenED2Ev
	.type	_ZNSt10shared_ptrI13AbstractTokenED2Ev, @function
_ZNSt10shared_ptrI13AbstractTokenED2Ev:
.LFB3107:
	.cfi_startproc
	pushq	%rbp
	.cfi_def_cfa_offset 16
	.cfi_offset 6, -16
	movq	%rsp, %rbp
	.cfi_def_cfa_register 6
	subq	$16, %rsp
	movq	%rdi, -8(%rbp)
	movq	-8(%rbp), %rax
	movq	%rax, %rdi
	call	_ZNSt12__shared_ptrI13AbstractTokenLN9__gnu_cxx12_Lock_policyE2EED2Ev
	nop
	leave
	.cfi_def_cfa 7, 8
	ret
	.cfi_endproc
.LFE3107:
	.size	_ZNSt10shared_ptrI13AbstractTokenED2Ev, .-_ZNSt10shared_ptrI13AbstractTokenED2Ev
	.weak	_ZNSt10shared_ptrI13AbstractTokenED1Ev
	.set	_ZNSt10shared_ptrI13AbstractTokenED1Ev,_ZNSt10shared_ptrI13AbstractTokenED2Ev
	.text
	.align 2
	.globl	_ZN9TokenList4NextEv
	.type	_ZN9TokenList4NextEv, @function
_ZN9TokenList4NextEv:
.LFB3095:
	.cfi_startproc
	pushq	%rbp
	.cfi_def_cfa_offset 16
	.cfi_offset 6, -16
	movq	%rsp, %rbp
	.cfi_def_cfa_register 6
	subq	$16, %rsp
	movq	%rdi, -8(%rbp)
	movq	%rsi, -16(%rbp)
	movq	-16(%rbp), %rax
	movl	$0, %esi
	movq	%rax, %rdi
	call	_ZN9TokenList7HasNextEi
	testb	%al, %al
	je	.L108
	movq	-16(%rbp), %rax
	movq	-16(%rbp), %rdx
	movl	24(%rdx), %edx
	leal	1(%rdx), %esi
	movq	-16(%rbp), %rcx
	movl	%esi, 24(%rcx)
	movl	%edx, %edx
	movq	%rdx, %rsi
	movq	%rax, %rdi
	call	_ZNSt6vectorISt10shared_ptrI13AbstractTokenESaIS2_EEixEm
	movq	%rax, %rdx
	movq	-8(%rbp), %rax
	movq	%rdx, %rsi
	movq	%rax, %rdi
	call	_ZNSt10shared_ptrI13AbstractTokenEC1ERKS1_
	jmp	.L109
.L108:
	movq	-8(%rbp), %rax
	movl	$0, %esi
	movq	%rax, %rdi
	call	_ZNSt10shared_ptrI13AbstractTokenEC1EDn
.L109:
	movq	-8(%rbp), %rax
	leave
	.cfi_def_cfa 7, 8
	ret
	.cfi_endproc
.LFE3095:
	.size	_ZN9TokenList4NextEv, .-_ZN9TokenList4NextEv
	.align 2
	.globl	_ZN9TokenList4PeekEi
	.type	_ZN9TokenList4PeekEi, @function
_ZN9TokenList4PeekEi:
.LFB3109:
	.cfi_startproc
	pushq	%rbp
	.cfi_def_cfa_offset 16
	.cfi_offset 6, -16
	movq	%rsp, %rbp
	.cfi_def_cfa_register 6
	pushq	%rbx
	subq	$40, %rsp
	.cfi_offset 3, -24
	movq	%rdi, -24(%rbp)
	movq	%rsi, -32(%rbp)
	movl	%edx, -36(%rbp)
	movq	-32(%rbp), %rax
	movl	24(%rax), %edx
	movl	-36(%rbp), %eax
	leal	(%rdx,%rax), %ebx
	movq	-32(%rbp), %rax
	movq	%rax, %rdi
	call	_ZN9TokenList7GetSizeEv
	cmpl	%eax, %ebx
	setnb	%al
	testb	%al, %al
	je	.L111
	movq	-24(%rbp), %rax
	movl	$0, %esi
	movq	%rax, %rdi
	call	_ZNSt10shared_ptrI13AbstractTokenEC1EDn
	jmp	.L112
.L111:
	movq	-32(%rbp), %rax
	movq	-32(%rbp), %rdx
	movl	24(%rdx), %ecx
	movl	-36(%rbp), %edx
	addl	%ecx, %edx
	movl	%edx, %edx
	movq	%rdx, %rsi
	movq	%rax, %rdi
	call	_ZNSt6vectorISt10shared_ptrI13AbstractTokenESaIS2_EEixEm
	movq	%rax, %rdx
	movq	-24(%rbp), %rax
	movq	%rdx, %rsi
	movq	%rax, %rdi
	call	_ZNSt10shared_ptrI13AbstractTokenEC1ERKS1_
.L112:
	movq	-24(%rbp), %rax
	movq	-8(%rbp), %rbx
	leave
	.cfi_def_cfa 7, 8
	ret
	.cfi_endproc
.LFE3109:
	.size	_ZN9TokenList4PeekEi, .-_ZN9TokenList4PeekEi
	.align 2
	.globl	_ZN9TokenList17IsPeekOfTokenTypeESt10shared_ptrI13AbstractTokenEi
	.type	_ZN9TokenList17IsPeekOfTokenTypeESt10shared_ptrI13AbstractTokenEi, @function
_ZN9TokenList17IsPeekOfTokenTypeESt10shared_ptrI13AbstractTokenEi:
.LFB3110:
	.cfi_startproc
	.cfi_personality 0x9b,DW.ref.__gxx_personality_v0
	.cfi_lsda 0x1b,.LLSDA3110
	pushq	%rbp
	.cfi_def_cfa_offset 16
	.cfi_offset 6, -16
	movq	%rsp, %rbp
	.cfi_def_cfa_register 6
	pushq	%r12
	pushq	%rbx
	subq	$64, %rsp
	.cfi_offset 12, -24
	.cfi_offset 3, -32
	movq	%rdi, -56(%rbp)
	movq	%rsi, -64(%rbp)
	movl	%edx, -68(%rbp)
	movl	-68(%rbp), %edx
	movq	-56(%rbp), %rax
	movl	%edx, %esi
	movq	%rax, %rdi
	call	_ZN9TokenList7HasNextEi
	xorl	$1, %eax
	testb	%al, %al
	je	.L114
	movl	$0, %ebx
	jmp	.L115
.L114:
	leaq	-48(%rbp), %rax
	movl	-68(%rbp), %edx
	movq	-56(%rbp), %rcx
	movq	%rcx, %rsi
	movq	%rax, %rdi
	call	_ZN9TokenList4PeekEi
	leaq	-48(%rbp), %rax
	movq	%rax, %rdi
	call	_ZNKSt19__shared_ptr_accessI13AbstractTokenLN9__gnu_cxx12_Lock_policyE2ELb0ELb0EEptEv
	movq	%rax, %rbx
	movq	(%rbx), %rax
	addq	$16, %rax
	movq	(%rax), %r12
	movq	-64(%rbp), %rdx
	leaq	-32(%rbp), %rax
	movq	%rdx, %rsi
	movq	%rax, %rdi
	call	_ZNSt10shared_ptrI13AbstractTokenEC1ERKS1_
	leaq	-32(%rbp), %rax
	movq	%rax, %rsi
	movq	%rbx, %rdi
.LEHB13:
	call	*%r12
.LEHE13:
	movl	%eax, %ebx
	nop
	leaq	-32(%rbp), %rax
	movq	%rax, %rdi
	call	_ZNSt10shared_ptrI13AbstractTokenED1Ev
	leaq	-48(%rbp), %rax
	movq	%rax, %rdi
	call	_ZNSt10shared_ptrI13AbstractTokenED1Ev
.L115:
	movl	%ebx, %eax
	jmp	.L118
.L117:
	movq	%rax, %rbx
	leaq	-32(%rbp), %rax
	movq	%rax, %rdi
	call	_ZNSt10shared_ptrI13AbstractTokenED1Ev
	leaq	-48(%rbp), %rax
	movq	%rax, %rdi
	call	_ZNSt10shared_ptrI13AbstractTokenED1Ev
	movq	%rbx, %rax
	movq	%rax, %rdi
.LEHB14:
	call	_Unwind_Resume@PLT
.LEHE14:
.L118:
	addq	$64, %rsp
	popq	%rbx
	popq	%r12
	popq	%rbp
	.cfi_def_cfa 7, 8
	ret
	.cfi_endproc
.LFE3110:
	.section	.gcc_except_table
.LLSDA3110:
	.byte	0xff
	.byte	0xff
	.byte	0x1
	.uleb128 .LLSDACSE3110-.LLSDACSB3110
.LLSDACSB3110:
	.uleb128 .LEHB13-.LFB3110
	.uleb128 .LEHE13-.LEHB13
	.uleb128 .L117-.LFB3110
	.uleb128 0
	.uleb128 .LEHB14-.LFB3110
	.uleb128 .LEHE14-.LEHB14
	.uleb128 0
	.uleb128 0
.LLSDACSE3110:
	.text
	.size	_ZN9TokenList17IsPeekOfTokenTypeESt10shared_ptrI13AbstractTokenEi, .-_ZN9TokenList17IsPeekOfTokenTypeESt10shared_ptrI13AbstractTokenEi
	.align 2
	.globl	_ZN9TokenList7HasNextEi
	.type	_ZN9TokenList7HasNextEi, @function
_ZN9TokenList7HasNextEi:
.LFB3111:
	.cfi_startproc
	pushq	%rbp
	.cfi_def_cfa_offset 16
	.cfi_offset 6, -16
	movq	%rsp, %rbp
	.cfi_def_cfa_register 6
	pushq	%rbx
	subq	$24, %rsp
	.cfi_offset 3, -24
	movq	%rdi, -24(%rbp)
	movl	%esi, -28(%rbp)
	movq	-24(%rbp), %rax
	movl	24(%rax), %edx
	movl	-28(%rbp), %eax
	addl	%edx, %eax
	movl	%eax, %ebx
	movq	-24(%rbp), %rax
	movq	%rax, %rdi
	call	_ZNKSt6vectorISt10shared_ptrI13AbstractTokenESaIS2_EE4sizeEv
	cmpq	%rax, %rbx
	setb	%al
	movq	-8(%rbp), %rbx
	leave
	.cfi_def_cfa 7, 8
	ret
	.cfi_endproc
.LFE3111:
	.size	_ZN9TokenList7HasNextEi, .-_ZN9TokenList7HasNextEi
	.section	.rodata
.LC0:
	.string	""
.LC1:
	.string	"\n"
	.text
	.align 2
	.globl	_ZN9TokenList8ToStringB5cxx11Ev
	.type	_ZN9TokenList8ToStringB5cxx11Ev, @function
_ZN9TokenList8ToStringB5cxx11Ev:
.LFB3112:
	.cfi_startproc
	.cfi_personality 0x9b,DW.ref.__gxx_personality_v0
	.cfi_lsda 0x1b,.LLSDA3112
	pushq	%rbp
	.cfi_def_cfa_offset 16
	.cfi_offset 6, -16
	movq	%rsp, %rbp
	.cfi_def_cfa_register 6
	pushq	%rbx
	subq	$120, %rsp
	.cfi_offset 3, -24
	movq	%rdi, -120(%rbp)
	movq	%rsi, -128(%rbp)
	leaq	-97(%rbp), %rax
	movq	%rax, %rdi
	call	_ZNSaIcEC1Ev@PLT
	leaq	-97(%rbp), %rdx
	movq	-120(%rbp), %rax
	leaq	.LC0(%rip), %rcx
	movq	%rcx, %rsi
	movq	%rax, %rdi
.LEHB15:
	call	_ZNSt7__cxx1112basic_stringIcSt11char_traitsIcESaIcEEC1IS3_EEPKcRKS3_
.LEHE15:
	leaq	-97(%rbp), %rax
	movq	%rax, %rdi
	call	_ZNSaIcED1Ev@PLT
	movl	$0, -20(%rbp)
	jmp	.L122
.L123:
	movq	-128(%rbp), %rax
	movl	-20(%rbp), %edx
	movslq	%edx, %rdx
	movq	%rdx, %rsi
	movq	%rax, %rdi
	call	_ZNSt6vectorISt10shared_ptrI13AbstractTokenESaIS2_EEixEm
	movq	%rax, %rdi
	call	_ZNKSt19__shared_ptr_accessI13AbstractTokenLN9__gnu_cxx12_Lock_policyE2ELb0ELb0EEptEv
	movq	(%rax), %rdx
	addq	$32, %rdx
	movq	(%rdx), %rcx
	leaq	-64(%rbp), %rdx
	movq	%rax, %rsi
	movq	%rdx, %rdi
.LEHB16:
	call	*%rcx
.LEHE16:
	leaq	-96(%rbp), %rax
	leaq	-64(%rbp), %rcx
	leaq	.LC1(%rip), %rdx
	movq	%rcx, %rsi
	movq	%rax, %rdi
.LEHB17:
	call	_ZStplIcSt11char_traitsIcESaIcEENSt7__cxx1112basic_stringIT_T0_T1_EEOS8_PKS5_
.LEHE17:
	leaq	-96(%rbp), %rdx
	movq	-120(%rbp), %rax
	movq	%rdx, %rsi
	movq	%rax, %rdi
.LEHB18:
	call	_ZNSt7__cxx1112basic_stringIcSt11char_traitsIcESaIcEEpLERKS4_@PLT
.LEHE18:
	leaq	-96(%rbp), %rax
	movq	%rax, %rdi
	call	_ZNSt7__cxx1112basic_stringIcSt11char_traitsIcESaIcEED1Ev@PLT
	leaq	-64(%rbp), %rax
	movq	%rax, %rdi
	call	_ZNSt7__cxx1112basic_stringIcSt11char_traitsIcESaIcEED1Ev@PLT
	addl	$1, -20(%rbp)
.L122:
	movl	-20(%rbp), %eax
	movslq	%eax, %rbx
	movq	-128(%rbp), %rax
	movq	%rax, %rdi
	call	_ZNKSt6vectorISt10shared_ptrI13AbstractTokenESaIS2_EE4sizeEv
	cmpq	%rax, %rbx
	setb	%al
	testb	%al, %al
	jne	.L123
	jmp	.L133
.L129:
	movq	%rax, %rbx
	leaq	-97(%rbp), %rax
	movq	%rax, %rdi
	call	_ZNSaIcED1Ev@PLT
	movq	%rbx, %rax
	movq	%rax, %rdi
.LEHB19:
	call	_Unwind_Resume@PLT
.L132:
	movq	%rax, %rbx
	leaq	-96(%rbp), %rax
	movq	%rax, %rdi
	call	_ZNSt7__cxx1112basic_stringIcSt11char_traitsIcESaIcEED1Ev@PLT
	jmp	.L127
.L131:
	movq	%rax, %rbx
.L127:
	leaq	-64(%rbp), %rax
	movq	%rax, %rdi
	call	_ZNSt7__cxx1112basic_stringIcSt11char_traitsIcESaIcEED1Ev@PLT
	jmp	.L128
.L130:
	movq	%rax, %rbx
.L128:
	movq	-120(%rbp), %rax
	movq	%rax, %rdi
	call	_ZNSt7__cxx1112basic_stringIcSt11char_traitsIcESaIcEED1Ev@PLT
	movq	%rbx, %rax
	movq	%rax, %rdi
	call	_Unwind_Resume@PLT
.LEHE19:
.L133:
	movq	-120(%rbp), %rax
	movq	-8(%rbp), %rbx
	leave
	.cfi_def_cfa 7, 8
	ret
	.cfi_endproc
.LFE3112:
	.section	.gcc_except_table
.LLSDA3112:
	.byte	0xff
	.byte	0xff
	.byte	0x1
	.uleb128 .LLSDACSE3112-.LLSDACSB3112
.LLSDACSB3112:
	.uleb128 .LEHB15-.LFB3112
	.uleb128 .LEHE15-.LEHB15
	.uleb128 .L129-.LFB3112
	.uleb128 0
	.uleb128 .LEHB16-.LFB3112
	.uleb128 .LEHE16-.LEHB16
	.uleb128 .L130-.LFB3112
	.uleb128 0
	.uleb128 .LEHB17-.LFB3112
	.uleb128 .LEHE17-.LEHB17
	.uleb128 .L131-.LFB3112
	.uleb128 0
	.uleb128 .LEHB18-.LFB3112
	.uleb128 .LEHE18-.LEHB18
	.uleb128 .L132-.LFB3112
	.uleb128 0
	.uleb128 .LEHB19-.LFB3112
	.uleb128 .LEHE19-.LEHB19
	.uleb128 0
	.uleb128 0
.LLSDACSE3112:
	.text
	.size	_ZN9TokenList8ToStringB5cxx11Ev, .-_ZN9TokenList8ToStringB5cxx11Ev
	.section	.text._ZN14CharacterGroupaSERKS_,"axG",@progbits,_ZN14CharacterGroupaSERKS_,comdat
	.align 2
	.weak	_ZN14CharacterGroupaSERKS_
	.type	_ZN14CharacterGroupaSERKS_, @function
_ZN14CharacterGroupaSERKS_:
.LFB3114:
	.cfi_startproc
	pushq	%rbp
	.cfi_def_cfa_offset 16
	.cfi_offset 6, -16
	movq	%rsp, %rbp
	.cfi_def_cfa_register 6
	subq	$16, %rsp
	movq	%rdi, -8(%rbp)
	movq	%rsi, -16(%rbp)
	movq	-16(%rbp), %rdx
	movq	-8(%rbp), %rax
	movq	%rdx, %rsi
	movq	%rax, %rdi
	call	_ZNSt6vectorI7TwoCharSaIS0_EEaSERKS2_
	movq	-8(%rbp), %rax
	leave
	.cfi_def_cfa 7, 8
	ret
	.cfi_endproc
.LFE3114:
	.size	_ZN14CharacterGroupaSERKS_, .-_ZN14CharacterGroupaSERKS_
	.text
	.align 2
	.globl	_ZN19CharacterGroupTokenC2ENSt7__cxx1112basic_stringIcSt11char_traitsIcESaIcEEER14CharacterGroup
	.type	_ZN19CharacterGroupTokenC2ENSt7__cxx1112basic_stringIcSt11char_traitsIcESaIcEEER14CharacterGroup, @function
_ZN19CharacterGroupTokenC2ENSt7__cxx1112basic_stringIcSt11char_traitsIcESaIcEEER14CharacterGroup:
.LFB3115:
	.cfi_startproc
	.cfi_personality 0x9b,DW.ref.__gxx_personality_v0
	.cfi_lsda 0x1b,.LLSDA3115
	pushq	%rbp
	.cfi_def_cfa_offset 16
	.cfi_offset 6, -16
	movq	%rsp, %rbp
	.cfi_def_cfa_register 6
	pushq	%rbx
	subq	$72, %rsp
	.cfi_offset 3, -24
	movq	%rdi, -56(%rbp)
	movq	%rsi, -64(%rbp)
	movq	%rdx, -72(%rbp)
	movq	-56(%rbp), %rbx
	movq	-64(%rbp), %rdx
	leaq	-48(%rbp), %rax
	movq	%rdx, %rsi
	movq	%rax, %rdi
.LEHB20:
	call	_ZNSt7__cxx1112basic_stringIcSt11char_traitsIcESaIcEEC1ERKS4_@PLT
.LEHE20:
	leaq	-48(%rbp), %rax
	movq	%rax, %rsi
	movq	%rbx, %rdi
.LEHB21:
	call	_ZN13AbstractTokenC2ENSt7__cxx1112basic_stringIcSt11char_traitsIcESaIcEEE
.LEHE21:
	leaq	-48(%rbp), %rax
	movq	%rax, %rdi
	call	_ZNSt7__cxx1112basic_stringIcSt11char_traitsIcESaIcEED1Ev@PLT
	leaq	16+_ZTV19CharacterGroupToken(%rip), %rdx
	movq	-56(%rbp), %rax
	movq	%rdx, (%rax)
	movq	-56(%rbp), %rax
	addq	$40, %rax
	movq	%rax, %rdi
	call	_ZN14CharacterGroupC1Ev
	movq	-56(%rbp), %rax
	leaq	40(%rax), %rdx
	movq	-72(%rbp), %rax
	movq	%rax, %rsi
	movq	%rdx, %rdi
.LEHB22:
	call	_ZN14CharacterGroupaSERKS_
.LEHE22:
	jmp	.L141
.L139:
	movq	%rax, %rbx
	leaq	-48(%rbp), %rax
	movq	%rax, %rdi
	call	_ZNSt7__cxx1112basic_stringIcSt11char_traitsIcESaIcEED1Ev@PLT
	movq	%rbx, %rax
	movq	%rax, %rdi
.LEHB23:
	call	_Unwind_Resume@PLT
.L140:
	movq	%rax, %rbx
	movq	-56(%rbp), %rax
	addq	$40, %rax
	movq	%rax, %rdi
	call	_ZN14CharacterGroupD1Ev
	movq	-56(%rbp), %rax
	movq	%rax, %rdi
	call	_ZN13AbstractTokenD2Ev
	movq	%rbx, %rax
	movq	%rax, %rdi
	call	_Unwind_Resume@PLT
.LEHE23:
.L141:
	movq	-8(%rbp), %rbx
	leave
	.cfi_def_cfa 7, 8
	ret
	.cfi_endproc
.LFE3115:
	.section	.gcc_except_table
.LLSDA3115:
	.byte	0xff
	.byte	0xff
	.byte	0x1
	.uleb128 .LLSDACSE3115-.LLSDACSB3115
.LLSDACSB3115:
	.uleb128 .LEHB20-.LFB3115
	.uleb128 .LEHE20-.LEHB20
	.uleb128 0
	.uleb128 0
	.uleb128 .LEHB21-.LFB3115
	.uleb128 .LEHE21-.LEHB21
	.uleb128 .L139-.LFB3115
	.uleb128 0
	.uleb128 .LEHB22-.LFB3115
	.uleb128 .LEHE22-.LEHB22
	.uleb128 .L140-.LFB3115
	.uleb128 0
	.uleb128 .LEHB23-.LFB3115
	.uleb128 .LEHE23-.LEHB23
	.uleb128 0
	.uleb128 0
.LLSDACSE3115:
	.text
	.size	_ZN19CharacterGroupTokenC2ENSt7__cxx1112basic_stringIcSt11char_traitsIcESaIcEEER14CharacterGroup, .-_ZN19CharacterGroupTokenC2ENSt7__cxx1112basic_stringIcSt11char_traitsIcESaIcEEER14CharacterGroup
	.globl	_ZN19CharacterGroupTokenC1ENSt7__cxx1112basic_stringIcSt11char_traitsIcESaIcEEER14CharacterGroup
	.set	_ZN19CharacterGroupTokenC1ENSt7__cxx1112basic_stringIcSt11char_traitsIcESaIcEEER14CharacterGroup,_ZN19CharacterGroupTokenC2ENSt7__cxx1112basic_stringIcSt11char_traitsIcESaIcEEER14CharacterGroup
	.align 2
	.globl	_ZN19CharacterGroupTokenD2Ev
	.type	_ZN19CharacterGroupTokenD2Ev, @function
_ZN19CharacterGroupTokenD2Ev:
.LFB3118:
	.cfi_startproc
	pushq	%rbp
	.cfi_def_cfa_offset 16
	.cfi_offset 6, -16
	movq	%rsp, %rbp
	.cfi_def_cfa_register 6
	subq	$16, %rsp
	movq	%rdi, -8(%rbp)
	leaq	16+_ZTV19CharacterGroupToken(%rip), %rdx
	movq	-8(%rbp), %rax
	movq	%rdx, (%rax)
	movq	-8(%rbp), %rax
	addq	$40, %rax
	movq	%rax, %rdi
	call	_ZN14CharacterGroupD1Ev
	movq	-8(%rbp), %rax
	movq	%rax, %rdi
	call	_ZN13AbstractTokenD2Ev
	nop
	leave
	.cfi_def_cfa 7, 8
	ret
	.cfi_endproc
.LFE3118:
	.size	_ZN19CharacterGroupTokenD2Ev, .-_ZN19CharacterGroupTokenD2Ev
	.globl	_ZN19CharacterGroupTokenD1Ev
	.set	_ZN19CharacterGroupTokenD1Ev,_ZN19CharacterGroupTokenD2Ev
	.align 2
	.globl	_ZN19CharacterGroupTokenD0Ev
	.type	_ZN19CharacterGroupTokenD0Ev, @function
_ZN19CharacterGroupTokenD0Ev:
.LFB3120:
	.cfi_startproc
	pushq	%rbp
	.cfi_def_cfa_offset 16
	.cfi_offset 6, -16
	movq	%rsp, %rbp
	.cfi_def_cfa_register 6
	subq	$16, %rsp
	movq	%rdi, -8(%rbp)
	movq	-8(%rbp), %rax
	movq	%rax, %rdi
	call	_ZN19CharacterGroupTokenD1Ev
	movq	-8(%rbp), %rax
	movl	$64, %esi
	movq	%rax, %rdi
	call	_ZdlPvm@PLT
	leave
	.cfi_def_cfa 7, 8
	ret
	.cfi_endproc
.LFE3120:
	.size	_ZN19CharacterGroupTokenD0Ev, .-_ZN19CharacterGroupTokenD0Ev
	.align 2
	.globl	_ZN19CharacterGroupToken5MatchEcc
	.type	_ZN19CharacterGroupToken5MatchEcc, @function
_ZN19CharacterGroupToken5MatchEcc:
.LFB3121:
	.cfi_startproc
	pushq	%rbp
	.cfi_def_cfa_offset 16
	.cfi_offset 6, -16
	movq	%rsp, %rbp
	.cfi_def_cfa_register 6
	subq	$16, %rsp
	movq	%rdi, -8(%rbp)
	movl	%esi, %ecx
	movl	%edx, %eax
	movl	%ecx, %edx
	movb	%dl, -12(%rbp)
	movb	%al, -16(%rbp)
	movq	-8(%rbp), %rax
	leaq	40(%rax), %rcx
	movsbl	-16(%rbp), %edx
	movsbl	-12(%rbp), %eax
	movl	%eax, %esi
	movq	%rcx, %rdi
	call	_ZN14CharacterGroup5MatchEcc
	leave
	.cfi_def_cfa 7, 8
	ret
	.cfi_endproc
.LFE3121:
	.size	_ZN19CharacterGroupToken5MatchEcc, .-_ZN19CharacterGroupToken5MatchEcc
	.section	.rodata
.LC2:
	.string	"identifier"
	.text
	.align 2
	.globl	_ZN15IdentifierTokenC2ENSt7__cxx1112basic_stringIcSt11char_traitsIcESaIcEEE
	.type	_ZN15IdentifierTokenC2ENSt7__cxx1112basic_stringIcSt11char_traitsIcESaIcEEE, @function
_ZN15IdentifierTokenC2ENSt7__cxx1112basic_stringIcSt11char_traitsIcESaIcEEE:
.LFB3123:
	.cfi_startproc
	.cfi_personality 0x9b,DW.ref.__gxx_personality_v0
	.cfi_lsda 0x1b,.LLSDA3123
	pushq	%rbp
	.cfi_def_cfa_offset 16
	.cfi_offset 6, -16
	movq	%rsp, %rbp
	.cfi_def_cfa_register 6
	pushq	%rbx
	subq	$72, %rsp
	.cfi_offset 3, -24
	movq	%rdi, -72(%rbp)
	movq	%rsi, -80(%rbp)
	movq	-72(%rbp), %rbx
	leaq	-17(%rbp), %rax
	movq	%rax, %rdi
	call	_ZNSaIcEC1Ev@PLT
	leaq	-17(%rbp), %rdx
	leaq	-64(%rbp), %rax
	leaq	.LC2(%rip), %rcx
	movq	%rcx, %rsi
	movq	%rax, %rdi
.LEHB24:
	call	_ZNSt7__cxx1112basic_stringIcSt11char_traitsIcESaIcEEC1IS3_EEPKcRKS3_
.LEHE24:
	leaq	-64(%rbp), %rax
	movq	%rax, %rsi
	movq	%rbx, %rdi
.LEHB25:
	call	_ZN13AbstractTokenC2ENSt7__cxx1112basic_stringIcSt11char_traitsIcESaIcEEE
.LEHE25:
	leaq	-64(%rbp), %rax
	movq	%rax, %rdi
	call	_ZNSt7__cxx1112basic_stringIcSt11char_traitsIcESaIcEED1Ev@PLT
	leaq	-17(%rbp), %rax
	movq	%rax, %rdi
	call	_ZNSaIcED1Ev@PLT
	leaq	16+_ZTV15IdentifierToken(%rip), %rdx
	movq	-72(%rbp), %rax
	movq	%rdx, (%rax)
	movq	-72(%rbp), %rax
	addq	$40, %rax
	movq	%rax, %rdi
	call	_ZNSt7__cxx1112basic_stringIcSt11char_traitsIcESaIcEEC1Ev@PLT
	movq	-72(%rbp), %rax
	leaq	40(%rax), %rdx
	movq	-80(%rbp), %rax
	movq	%rax, %rsi
	movq	%rdx, %rdi
.LEHB26:
	call	_ZNSt7__cxx1112basic_stringIcSt11char_traitsIcESaIcEEaSERKS4_@PLT
.LEHE26:
	jmp	.L153
.L151:
	movq	%rax, %rbx
	leaq	-64(%rbp), %rax
	movq	%rax, %rdi
	call	_ZNSt7__cxx1112basic_stringIcSt11char_traitsIcESaIcEED1Ev@PLT
	jmp	.L148
.L150:
	movq	%rax, %rbx
.L148:
	leaq	-17(%rbp), %rax
	movq	%rax, %rdi
	call	_ZNSaIcED1Ev@PLT
	movq	%rbx, %rax
	movq	%rax, %rdi
.LEHB27:
	call	_Unwind_Resume@PLT
.L152:
	movq	%rax, %rbx
	movq	-72(%rbp), %rax
	addq	$40, %rax
	movq	%rax, %rdi
	call	_ZNSt7__cxx1112basic_stringIcSt11char_traitsIcESaIcEED1Ev@PLT
	movq	-72(%rbp), %rax
	movq	%rax, %rdi
	call	_ZN13AbstractTokenD2Ev
	movq	%rbx, %rax
	movq	%rax, %rdi
	call	_Unwind_Resume@PLT
.LEHE27:
.L153:
	movq	-8(%rbp), %rbx
	leave
	.cfi_def_cfa 7, 8
	ret
	.cfi_endproc
.LFE3123:
	.section	.gcc_except_table
.LLSDA3123:
	.byte	0xff
	.byte	0xff
	.byte	0x1
	.uleb128 .LLSDACSE3123-.LLSDACSB3123
.LLSDACSB3123:
	.uleb128 .LEHB24-.LFB3123
	.uleb128 .LEHE24-.LEHB24
	.uleb128 .L150-.LFB3123
	.uleb128 0
	.uleb128 .LEHB25-.LFB3123
	.uleb128 .LEHE25-.LEHB25
	.uleb128 .L151-.LFB3123
	.uleb128 0
	.uleb128 .LEHB26-.LFB3123
	.uleb128 .LEHE26-.LEHB26
	.uleb128 .L152-.LFB3123
	.uleb128 0
	.uleb128 .LEHB27-.LFB3123
	.uleb128 .LEHE27-.LEHB27
	.uleb128 0
	.uleb128 0
.LLSDACSE3123:
	.text
	.size	_ZN15IdentifierTokenC2ENSt7__cxx1112basic_stringIcSt11char_traitsIcESaIcEEE, .-_ZN15IdentifierTokenC2ENSt7__cxx1112basic_stringIcSt11char_traitsIcESaIcEEE
	.globl	_ZN15IdentifierTokenC1ENSt7__cxx1112basic_stringIcSt11char_traitsIcESaIcEEE
	.set	_ZN15IdentifierTokenC1ENSt7__cxx1112basic_stringIcSt11char_traitsIcESaIcEEE,_ZN15IdentifierTokenC2ENSt7__cxx1112basic_stringIcSt11char_traitsIcESaIcEEE
	.align 2
	.globl	_ZN15IdentifierTokenD2Ev
	.type	_ZN15IdentifierTokenD2Ev, @function
_ZN15IdentifierTokenD2Ev:
.LFB3126:
	.cfi_startproc
	pushq	%rbp
	.cfi_def_cfa_offset 16
	.cfi_offset 6, -16
	movq	%rsp, %rbp
	.cfi_def_cfa_register 6
	subq	$16, %rsp
	movq	%rdi, -8(%rbp)
	leaq	16+_ZTV15IdentifierToken(%rip), %rdx
	movq	-8(%rbp), %rax
	movq	%rdx, (%rax)
	movq	-8(%rbp), %rax
	addq	$40, %rax
	movq	%rax, %rdi
	call	_ZNSt7__cxx1112basic_stringIcSt11char_traitsIcESaIcEED1Ev@PLT
	movq	-8(%rbp), %rax
	movq	%rax, %rdi
	call	_ZN13AbstractTokenD2Ev
	nop
	leave
	.cfi_def_cfa 7, 8
	ret
	.cfi_endproc
.LFE3126:
	.size	_ZN15IdentifierTokenD2Ev, .-_ZN15IdentifierTokenD2Ev
	.globl	_ZN15IdentifierTokenD1Ev
	.set	_ZN15IdentifierTokenD1Ev,_ZN15IdentifierTokenD2Ev
	.align 2
	.globl	_ZN15IdentifierTokenD0Ev
	.type	_ZN15IdentifierTokenD0Ev, @function
_ZN15IdentifierTokenD0Ev:
.LFB3128:
	.cfi_startproc
	pushq	%rbp
	.cfi_def_cfa_offset 16
	.cfi_offset 6, -16
	movq	%rsp, %rbp
	.cfi_def_cfa_register 6
	subq	$16, %rsp
	movq	%rdi, -8(%rbp)
	movq	-8(%rbp), %rax
	movq	%rax, %rdi
	call	_ZN15IdentifierTokenD1Ev
	movq	-8(%rbp), %rax
	movl	$72, %esi
	movq	%rax, %rdi
	call	_ZdlPvm@PLT
	leave
	.cfi_def_cfa 7, 8
	ret
	.cfi_endproc
.LFE3128:
	.size	_ZN15IdentifierTokenD0Ev, .-_ZN15IdentifierTokenD0Ev
	.section	.rodata
.LC3:
	.string	": "
	.text
	.align 2
	.globl	_ZN15IdentifierToken8ToStringB5cxx11Ev
	.type	_ZN15IdentifierToken8ToStringB5cxx11Ev, @function
_ZN15IdentifierToken8ToStringB5cxx11Ev:
.LFB3129:
	.cfi_startproc
	.cfi_personality 0x9b,DW.ref.__gxx_personality_v0
	.cfi_lsda 0x1b,.LLSDA3129
	pushq	%rbp
	.cfi_def_cfa_offset 16
	.cfi_offset 6, -16
	movq	%rsp, %rbp
	.cfi_def_cfa_register 6
	pushq	%rbx
	subq	$88, %rsp
	.cfi_offset 3, -24
	movq	%rdi, -88(%rbp)
	movq	%rsi, -96(%rbp)
	movq	-96(%rbp), %rax
	leaq	40(%rax), %rbx
	movq	-96(%rbp), %rdx
	leaq	-48(%rbp), %rax
	movq	%rdx, %rsi
	movq	%rax, %rdi
.LEHB28:
	call	_ZN13AbstractToken8ToStringB5cxx11Ev
.LEHE28:
	leaq	-80(%rbp), %rax
	leaq	-48(%rbp), %rcx
	leaq	.LC3(%rip), %rdx
	movq	%rcx, %rsi
	movq	%rax, %rdi
.LEHB29:
	call	_ZStplIcSt11char_traitsIcESaIcEENSt7__cxx1112basic_stringIT_T0_T1_EEOS8_PKS5_
.LEHE29:
	movq	-88(%rbp), %rax
	leaq	-80(%rbp), %rcx
	movq	%rbx, %rdx
	movq	%rcx, %rsi
	movq	%rax, %rdi
.LEHB30:
	call	_ZStplIcSt11char_traitsIcESaIcEENSt7__cxx1112basic_stringIT_T0_T1_EEOS8_RKS8_
.LEHE30:
	nop
	leaq	-80(%rbp), %rax
	movq	%rax, %rdi
	call	_ZNSt7__cxx1112basic_stringIcSt11char_traitsIcESaIcEED1Ev@PLT
	leaq	-48(%rbp), %rax
	movq	%rax, %rdi
	call	_ZNSt7__cxx1112basic_stringIcSt11char_traitsIcESaIcEED1Ev@PLT
	jmp	.L162
.L161:
	movq	%rax, %rbx
	leaq	-80(%rbp), %rax
	movq	%rax, %rdi
	call	_ZNSt7__cxx1112basic_stringIcSt11char_traitsIcESaIcEED1Ev@PLT
	jmp	.L159
.L160:
	movq	%rax, %rbx
.L159:
	leaq	-48(%rbp), %rax
	movq	%rax, %rdi
	call	_ZNSt7__cxx1112basic_stringIcSt11char_traitsIcESaIcEED1Ev@PLT
	movq	%rbx, %rax
	movq	%rax, %rdi
.LEHB31:
	call	_Unwind_Resume@PLT
.LEHE31:
.L162:
	movq	-88(%rbp), %rax
	movq	-8(%rbp), %rbx
	leave
	.cfi_def_cfa 7, 8
	ret
	.cfi_endproc
.LFE3129:
	.section	.gcc_except_table
.LLSDA3129:
	.byte	0xff
	.byte	0xff
	.byte	0x1
	.uleb128 .LLSDACSE3129-.LLSDACSB3129
.LLSDACSB3129:
	.uleb128 .LEHB28-.LFB3129
	.uleb128 .LEHE28-.LEHB28
	.uleb128 0
	.uleb128 0
	.uleb128 .LEHB29-.LFB3129
	.uleb128 .LEHE29-.LEHB29
	.uleb128 .L160-.LFB3129
	.uleb128 0
	.uleb128 .LEHB30-.LFB3129
	.uleb128 .LEHE30-.LEHB30
	.uleb128 .L161-.LFB3129
	.uleb128 0
	.uleb128 .LEHB31-.LFB3129
	.uleb128 .LEHE31-.LEHB31
	.uleb128 0
	.uleb128 0
.LLSDACSE3129:
	.text
	.size	_ZN15IdentifierToken8ToStringB5cxx11Ev, .-_ZN15IdentifierToken8ToStringB5cxx11Ev
	.align 2
	.globl	_ZN15IdentifierToken8GetValueB5cxx11Ev
	.type	_ZN15IdentifierToken8GetValueB5cxx11Ev, @function
_ZN15IdentifierToken8GetValueB5cxx11Ev:
.LFB3130:
	.cfi_startproc
	pushq	%rbp
	.cfi_def_cfa_offset 16
	.cfi_offset 6, -16
	movq	%rsp, %rbp
	.cfi_def_cfa_register 6
	subq	$16, %rsp
	movq	%rdi, -8(%rbp)
	movq	%rsi, -16(%rbp)
	movq	-16(%rbp), %rax
	leaq	40(%rax), %rdx
	movq	-8(%rbp), %rax
	movq	%rdx, %rsi
	movq	%rax, %rdi
	call	_ZNSt7__cxx1112basic_stringIcSt11char_traitsIcESaIcEEC1ERKS4_@PLT
	movq	-8(%rbp), %rax
	leave
	.cfi_def_cfa 7, 8
	ret
	.cfi_endproc
.LFE3130:
	.size	_ZN15IdentifierToken8GetValueB5cxx11Ev, .-_ZN15IdentifierToken8GetValueB5cxx11Ev
	.section	.rodata
.LC4:
	.string	"numberConst"
	.text
	.align 2
	.globl	_ZN16NumberConstTokenC2ENSt7__cxx1112basic_stringIcSt11char_traitsIcESaIcEEE
	.type	_ZN16NumberConstTokenC2ENSt7__cxx1112basic_stringIcSt11char_traitsIcESaIcEEE, @function
_ZN16NumberConstTokenC2ENSt7__cxx1112basic_stringIcSt11char_traitsIcESaIcEEE:
.LFB3132:
	.cfi_startproc
	.cfi_personality 0x9b,DW.ref.__gxx_personality_v0
	.cfi_lsda 0x1b,.LLSDA3132
	pushq	%rbp
	.cfi_def_cfa_offset 16
	.cfi_offset 6, -16
	movq	%rsp, %rbp
	.cfi_def_cfa_register 6
	pushq	%rbx
	subq	$72, %rsp
	.cfi_offset 3, -24
	movq	%rdi, -72(%rbp)
	movq	%rsi, -80(%rbp)
	movq	-72(%rbp), %rbx
	leaq	-17(%rbp), %rax
	movq	%rax, %rdi
	call	_ZNSaIcEC1Ev@PLT
	leaq	-17(%rbp), %rdx
	leaq	-64(%rbp), %rax
	leaq	.LC4(%rip), %rcx
	movq	%rcx, %rsi
	movq	%rax, %rdi
.LEHB32:
	call	_ZNSt7__cxx1112basic_stringIcSt11char_traitsIcESaIcEEC1IS3_EEPKcRKS3_
.LEHE32:
	leaq	-64(%rbp), %rax
	movq	%rax, %rsi
	movq	%rbx, %rdi
.LEHB33:
	call	_ZN13AbstractTokenC2ENSt7__cxx1112basic_stringIcSt11char_traitsIcESaIcEEE
.LEHE33:
	leaq	-64(%rbp), %rax
	movq	%rax, %rdi
	call	_ZNSt7__cxx1112basic_stringIcSt11char_traitsIcESaIcEED1Ev@PLT
	leaq	-17(%rbp), %rax
	movq	%rax, %rdi
	call	_ZNSaIcED1Ev@PLT
	leaq	16+_ZTV16NumberConstToken(%rip), %rdx
	movq	-72(%rbp), %rax
	movq	%rdx, (%rax)
	movq	-72(%rbp), %rax
	addq	$40, %rax
	movq	%rax, %rdi
	call	_ZNSt7__cxx1112basic_stringIcSt11char_traitsIcESaIcEEC1Ev@PLT
	movq	-72(%rbp), %rax
	leaq	40(%rax), %rdx
	movq	-80(%rbp), %rax
	movq	%rax, %rsi
	movq	%rdx, %rdi
.LEHB34:
	call	_ZNSt7__cxx1112basic_stringIcSt11char_traitsIcESaIcEEaSERKS4_@PLT
.LEHE34:
	jmp	.L172
.L170:
	movq	%rax, %rbx
	leaq	-64(%rbp), %rax
	movq	%rax, %rdi
	call	_ZNSt7__cxx1112basic_stringIcSt11char_traitsIcESaIcEED1Ev@PLT
	jmp	.L167
.L169:
	movq	%rax, %rbx
.L167:
	leaq	-17(%rbp), %rax
	movq	%rax, %rdi
	call	_ZNSaIcED1Ev@PLT
	movq	%rbx, %rax
	movq	%rax, %rdi
.LEHB35:
	call	_Unwind_Resume@PLT
.L171:
	movq	%rax, %rbx
	movq	-72(%rbp), %rax
	addq	$40, %rax
	movq	%rax, %rdi
	call	_ZNSt7__cxx1112basic_stringIcSt11char_traitsIcESaIcEED1Ev@PLT
	movq	-72(%rbp), %rax
	movq	%rax, %rdi
	call	_ZN13AbstractTokenD2Ev
	movq	%rbx, %rax
	movq	%rax, %rdi
	call	_Unwind_Resume@PLT
.LEHE35:
.L172:
	movq	-8(%rbp), %rbx
	leave
	.cfi_def_cfa 7, 8
	ret
	.cfi_endproc
.LFE3132:
	.section	.gcc_except_table
.LLSDA3132:
	.byte	0xff
	.byte	0xff
	.byte	0x1
	.uleb128 .LLSDACSE3132-.LLSDACSB3132
.LLSDACSB3132:
	.uleb128 .LEHB32-.LFB3132
	.uleb128 .LEHE32-.LEHB32
	.uleb128 .L169-.LFB3132
	.uleb128 0
	.uleb128 .LEHB33-.LFB3132
	.uleb128 .LEHE33-.LEHB33
	.uleb128 .L170-.LFB3132
	.uleb128 0
	.uleb128 .LEHB34-.LFB3132
	.uleb128 .LEHE34-.LEHB34
	.uleb128 .L171-.LFB3132
	.uleb128 0
	.uleb128 .LEHB35-.LFB3132
	.uleb128 .LEHE35-.LEHB35
	.uleb128 0
	.uleb128 0
.LLSDACSE3132:
	.text
	.size	_ZN16NumberConstTokenC2ENSt7__cxx1112basic_stringIcSt11char_traitsIcESaIcEEE, .-_ZN16NumberConstTokenC2ENSt7__cxx1112basic_stringIcSt11char_traitsIcESaIcEEE
	.globl	_ZN16NumberConstTokenC1ENSt7__cxx1112basic_stringIcSt11char_traitsIcESaIcEEE
	.set	_ZN16NumberConstTokenC1ENSt7__cxx1112basic_stringIcSt11char_traitsIcESaIcEEE,_ZN16NumberConstTokenC2ENSt7__cxx1112basic_stringIcSt11char_traitsIcESaIcEEE
	.align 2
	.globl	_ZN16NumberConstTokenD2Ev
	.type	_ZN16NumberConstTokenD2Ev, @function
_ZN16NumberConstTokenD2Ev:
.LFB3135:
	.cfi_startproc
	pushq	%rbp
	.cfi_def_cfa_offset 16
	.cfi_offset 6, -16
	movq	%rsp, %rbp
	.cfi_def_cfa_register 6
	subq	$16, %rsp
	movq	%rdi, -8(%rbp)
	leaq	16+_ZTV16NumberConstToken(%rip), %rdx
	movq	-8(%rbp), %rax
	movq	%rdx, (%rax)
	movq	-8(%rbp), %rax
	addq	$40, %rax
	movq	%rax, %rdi
	call	_ZNSt7__cxx1112basic_stringIcSt11char_traitsIcESaIcEED1Ev@PLT
	movq	-8(%rbp), %rax
	movq	%rax, %rdi
	call	_ZN13AbstractTokenD2Ev
	nop
	leave
	.cfi_def_cfa 7, 8
	ret
	.cfi_endproc
.LFE3135:
	.size	_ZN16NumberConstTokenD2Ev, .-_ZN16NumberConstTokenD2Ev
	.globl	_ZN16NumberConstTokenD1Ev
	.set	_ZN16NumberConstTokenD1Ev,_ZN16NumberConstTokenD2Ev
	.align 2
	.globl	_ZN16NumberConstTokenD0Ev
	.type	_ZN16NumberConstTokenD0Ev, @function
_ZN16NumberConstTokenD0Ev:
.LFB3137:
	.cfi_startproc
	pushq	%rbp
	.cfi_def_cfa_offset 16
	.cfi_offset 6, -16
	movq	%rsp, %rbp
	.cfi_def_cfa_register 6
	subq	$16, %rsp
	movq	%rdi, -8(%rbp)
	movq	-8(%rbp), %rax
	movq	%rax, %rdi
	call	_ZN16NumberConstTokenD1Ev
	movq	-8(%rbp), %rax
	movl	$72, %esi
	movq	%rax, %rdi
	call	_ZdlPvm@PLT
	leave
	.cfi_def_cfa 7, 8
	ret
	.cfi_endproc
.LFE3137:
	.size	_ZN16NumberConstTokenD0Ev, .-_ZN16NumberConstTokenD0Ev
	.align 2
	.globl	_ZN16NumberConstToken8ToStringB5cxx11Ev
	.type	_ZN16NumberConstToken8ToStringB5cxx11Ev, @function
_ZN16NumberConstToken8ToStringB5cxx11Ev:
.LFB3138:
	.cfi_startproc
	.cfi_personality 0x9b,DW.ref.__gxx_personality_v0
	.cfi_lsda 0x1b,.LLSDA3138
	pushq	%rbp
	.cfi_def_cfa_offset 16
	.cfi_offset 6, -16
	movq	%rsp, %rbp
	.cfi_def_cfa_register 6
	pushq	%rbx
	subq	$88, %rsp
	.cfi_offset 3, -24
	movq	%rdi, -88(%rbp)
	movq	%rsi, -96(%rbp)
	movq	-96(%rbp), %rax
	leaq	40(%rax), %rbx
	movq	-96(%rbp), %rdx
	leaq	-48(%rbp), %rax
	movq	%rdx, %rsi
	movq	%rax, %rdi
.LEHB36:
	call	_ZN13AbstractToken8ToStringB5cxx11Ev
.LEHE36:
	leaq	-80(%rbp), %rax
	leaq	-48(%rbp), %rcx
	leaq	.LC3(%rip), %rdx
	movq	%rcx, %rsi
	movq	%rax, %rdi
.LEHB37:
	call	_ZStplIcSt11char_traitsIcESaIcEENSt7__cxx1112basic_stringIT_T0_T1_EEOS8_PKS5_
.LEHE37:
	movq	-88(%rbp), %rax
	leaq	-80(%rbp), %rcx
	movq	%rbx, %rdx
	movq	%rcx, %rsi
	movq	%rax, %rdi
.LEHB38:
	call	_ZStplIcSt11char_traitsIcESaIcEENSt7__cxx1112basic_stringIT_T0_T1_EEOS8_RKS8_
.LEHE38:
	nop
	leaq	-80(%rbp), %rax
	movq	%rax, %rdi
	call	_ZNSt7__cxx1112basic_stringIcSt11char_traitsIcESaIcEED1Ev@PLT
	leaq	-48(%rbp), %rax
	movq	%rax, %rdi
	call	_ZNSt7__cxx1112basic_stringIcSt11char_traitsIcESaIcEED1Ev@PLT
	jmp	.L181
.L180:
	movq	%rax, %rbx
	leaq	-80(%rbp), %rax
	movq	%rax, %rdi
	call	_ZNSt7__cxx1112basic_stringIcSt11char_traitsIcESaIcEED1Ev@PLT
	jmp	.L178
.L179:
	movq	%rax, %rbx
.L178:
	leaq	-48(%rbp), %rax
	movq	%rax, %rdi
	call	_ZNSt7__cxx1112basic_stringIcSt11char_traitsIcESaIcEED1Ev@PLT
	movq	%rbx, %rax
	movq	%rax, %rdi
.LEHB39:
	call	_Unwind_Resume@PLT
.LEHE39:
.L181:
	movq	-88(%rbp), %rax
	movq	-8(%rbp), %rbx
	leave
	.cfi_def_cfa 7, 8
	ret
	.cfi_endproc
.LFE3138:
	.section	.gcc_except_table
.LLSDA3138:
	.byte	0xff
	.byte	0xff
	.byte	0x1
	.uleb128 .LLSDACSE3138-.LLSDACSB3138
.LLSDACSB3138:
	.uleb128 .LEHB36-.LFB3138
	.uleb128 .LEHE36-.LEHB36
	.uleb128 0
	.uleb128 0
	.uleb128 .LEHB37-.LFB3138
	.uleb128 .LEHE37-.LEHB37
	.uleb128 .L179-.LFB3138
	.uleb128 0
	.uleb128 .LEHB38-.LFB3138
	.uleb128 .LEHE38-.LEHB38
	.uleb128 .L180-.LFB3138
	.uleb128 0
	.uleb128 .LEHB39-.LFB3138
	.uleb128 .LEHE39-.LEHB39
	.uleb128 0
	.uleb128 0
.LLSDACSE3138:
	.text
	.size	_ZN16NumberConstToken8ToStringB5cxx11Ev, .-_ZN16NumberConstToken8ToStringB5cxx11Ev
	.align 2
	.globl	_ZN16NumberConstToken8GetValueB5cxx11Ev
	.type	_ZN16NumberConstToken8GetValueB5cxx11Ev, @function
_ZN16NumberConstToken8GetValueB5cxx11Ev:
.LFB3139:
	.cfi_startproc
	pushq	%rbp
	.cfi_def_cfa_offset 16
	.cfi_offset 6, -16
	movq	%rsp, %rbp
	.cfi_def_cfa_register 6
	subq	$16, %rsp
	movq	%rdi, -8(%rbp)
	movq	%rsi, -16(%rbp)
	movq	-16(%rbp), %rax
	leaq	40(%rax), %rdx
	movq	-8(%rbp), %rax
	movq	%rdx, %rsi
	movq	%rax, %rdi
	call	_ZNSt7__cxx1112basic_stringIcSt11char_traitsIcESaIcEEC1ERKS4_@PLT
	movq	-8(%rbp), %rax
	leave
	.cfi_def_cfa 7, 8
	ret
	.cfi_endproc
.LFE3139:
	.size	_ZN16NumberConstToken8GetValueB5cxx11Ev, .-_ZN16NumberConstToken8GetValueB5cxx11Ev
	.section	.rodata
.LC5:
	.string	"stringConst"
	.text
	.align 2
	.globl	_ZN16StringConstTokenC2ENSt7__cxx1112basic_stringIcSt11char_traitsIcESaIcEEE
	.type	_ZN16StringConstTokenC2ENSt7__cxx1112basic_stringIcSt11char_traitsIcESaIcEEE, @function
_ZN16StringConstTokenC2ENSt7__cxx1112basic_stringIcSt11char_traitsIcESaIcEEE:
.LFB3141:
	.cfi_startproc
	.cfi_personality 0x9b,DW.ref.__gxx_personality_v0
	.cfi_lsda 0x1b,.LLSDA3141
	pushq	%rbp
	.cfi_def_cfa_offset 16
	.cfi_offset 6, -16
	movq	%rsp, %rbp
	.cfi_def_cfa_register 6
	pushq	%rbx
	subq	$72, %rsp
	.cfi_offset 3, -24
	movq	%rdi, -72(%rbp)
	movq	%rsi, -80(%rbp)
	movq	-72(%rbp), %rbx
	leaq	-17(%rbp), %rax
	movq	%rax, %rdi
	call	_ZNSaIcEC1Ev@PLT
	leaq	-17(%rbp), %rdx
	leaq	-64(%rbp), %rax
	leaq	.LC5(%rip), %rcx
	movq	%rcx, %rsi
	movq	%rax, %rdi
.LEHB40:
	call	_ZNSt7__cxx1112basic_stringIcSt11char_traitsIcESaIcEEC1IS3_EEPKcRKS3_
.LEHE40:
	leaq	-64(%rbp), %rax
	movq	%rax, %rsi
	movq	%rbx, %rdi
.LEHB41:
	call	_ZN13AbstractTokenC2ENSt7__cxx1112basic_stringIcSt11char_traitsIcESaIcEEE
.LEHE41:
	leaq	-64(%rbp), %rax
	movq	%rax, %rdi
	call	_ZNSt7__cxx1112basic_stringIcSt11char_traitsIcESaIcEED1Ev@PLT
	leaq	-17(%rbp), %rax
	movq	%rax, %rdi
	call	_ZNSaIcED1Ev@PLT
	leaq	16+_ZTV16StringConstToken(%rip), %rdx
	movq	-72(%rbp), %rax
	movq	%rdx, (%rax)
	movq	-72(%rbp), %rax
	addq	$40, %rax
	movq	%rax, %rdi
	call	_ZNSt7__cxx1112basic_stringIcSt11char_traitsIcESaIcEEC1Ev@PLT
	movq	-72(%rbp), %rax
	leaq	40(%rax), %rdx
	movq	-80(%rbp), %rax
	movq	%rax, %rsi
	movq	%rdx, %rdi
.LEHB42:
	call	_ZNSt7__cxx1112basic_stringIcSt11char_traitsIcESaIcEEaSERKS4_@PLT
.LEHE42:
	jmp	.L191
.L189:
	movq	%rax, %rbx
	leaq	-64(%rbp), %rax
	movq	%rax, %rdi
	call	_ZNSt7__cxx1112basic_stringIcSt11char_traitsIcESaIcEED1Ev@PLT
	jmp	.L186
.L188:
	movq	%rax, %rbx
.L186:
	leaq	-17(%rbp), %rax
	movq	%rax, %rdi
	call	_ZNSaIcED1Ev@PLT
	movq	%rbx, %rax
	movq	%rax, %rdi
.LEHB43:
	call	_Unwind_Resume@PLT
.L190:
	movq	%rax, %rbx
	movq	-72(%rbp), %rax
	addq	$40, %rax
	movq	%rax, %rdi
	call	_ZNSt7__cxx1112basic_stringIcSt11char_traitsIcESaIcEED1Ev@PLT
	movq	-72(%rbp), %rax
	movq	%rax, %rdi
	call	_ZN13AbstractTokenD2Ev
	movq	%rbx, %rax
	movq	%rax, %rdi
	call	_Unwind_Resume@PLT
.LEHE43:
.L191:
	movq	-8(%rbp), %rbx
	leave
	.cfi_def_cfa 7, 8
	ret
	.cfi_endproc
.LFE3141:
	.section	.gcc_except_table
.LLSDA3141:
	.byte	0xff
	.byte	0xff
	.byte	0x1
	.uleb128 .LLSDACSE3141-.LLSDACSB3141
.LLSDACSB3141:
	.uleb128 .LEHB40-.LFB3141
	.uleb128 .LEHE40-.LEHB40
	.uleb128 .L188-.LFB3141
	.uleb128 0
	.uleb128 .LEHB41-.LFB3141
	.uleb128 .LEHE41-.LEHB41
	.uleb128 .L189-.LFB3141
	.uleb128 0
	.uleb128 .LEHB42-.LFB3141
	.uleb128 .LEHE42-.LEHB42
	.uleb128 .L190-.LFB3141
	.uleb128 0
	.uleb128 .LEHB43-.LFB3141
	.uleb128 .LEHE43-.LEHB43
	.uleb128 0
	.uleb128 0
.LLSDACSE3141:
	.text
	.size	_ZN16StringConstTokenC2ENSt7__cxx1112basic_stringIcSt11char_traitsIcESaIcEEE, .-_ZN16StringConstTokenC2ENSt7__cxx1112basic_stringIcSt11char_traitsIcESaIcEEE
	.globl	_ZN16StringConstTokenC1ENSt7__cxx1112basic_stringIcSt11char_traitsIcESaIcEEE
	.set	_ZN16StringConstTokenC1ENSt7__cxx1112basic_stringIcSt11char_traitsIcESaIcEEE,_ZN16StringConstTokenC2ENSt7__cxx1112basic_stringIcSt11char_traitsIcESaIcEEE
	.align 2
	.globl	_ZN16StringConstTokenD2Ev
	.type	_ZN16StringConstTokenD2Ev, @function
_ZN16StringConstTokenD2Ev:
.LFB3144:
	.cfi_startproc
	pushq	%rbp
	.cfi_def_cfa_offset 16
	.cfi_offset 6, -16
	movq	%rsp, %rbp
	.cfi_def_cfa_register 6
	subq	$16, %rsp
	movq	%rdi, -8(%rbp)
	leaq	16+_ZTV16StringConstToken(%rip), %rdx
	movq	-8(%rbp), %rax
	movq	%rdx, (%rax)
	movq	-8(%rbp), %rax
	addq	$40, %rax
	movq	%rax, %rdi
	call	_ZNSt7__cxx1112basic_stringIcSt11char_traitsIcESaIcEED1Ev@PLT
	movq	-8(%rbp), %rax
	movq	%rax, %rdi
	call	_ZN13AbstractTokenD2Ev
	nop
	leave
	.cfi_def_cfa 7, 8
	ret
	.cfi_endproc
.LFE3144:
	.size	_ZN16StringConstTokenD2Ev, .-_ZN16StringConstTokenD2Ev
	.globl	_ZN16StringConstTokenD1Ev
	.set	_ZN16StringConstTokenD1Ev,_ZN16StringConstTokenD2Ev
	.align 2
	.globl	_ZN16StringConstTokenD0Ev
	.type	_ZN16StringConstTokenD0Ev, @function
_ZN16StringConstTokenD0Ev:
.LFB3146:
	.cfi_startproc
	pushq	%rbp
	.cfi_def_cfa_offset 16
	.cfi_offset 6, -16
	movq	%rsp, %rbp
	.cfi_def_cfa_register 6
	subq	$16, %rsp
	movq	%rdi, -8(%rbp)
	movq	-8(%rbp), %rax
	movq	%rax, %rdi
	call	_ZN16StringConstTokenD1Ev
	movq	-8(%rbp), %rax
	movl	$72, %esi
	movq	%rax, %rdi
	call	_ZdlPvm@PLT
	leave
	.cfi_def_cfa 7, 8
	ret
	.cfi_endproc
.LFE3146:
	.size	_ZN16StringConstTokenD0Ev, .-_ZN16StringConstTokenD0Ev
	.align 2
	.globl	_ZN16StringConstToken8ToStringB5cxx11Ev
	.type	_ZN16StringConstToken8ToStringB5cxx11Ev, @function
_ZN16StringConstToken8ToStringB5cxx11Ev:
.LFB3147:
	.cfi_startproc
	.cfi_personality 0x9b,DW.ref.__gxx_personality_v0
	.cfi_lsda 0x1b,.LLSDA3147
	pushq	%rbp
	.cfi_def_cfa_offset 16
	.cfi_offset 6, -16
	movq	%rsp, %rbp
	.cfi_def_cfa_register 6
	pushq	%rbx
	subq	$88, %rsp
	.cfi_offset 3, -24
	movq	%rdi, -88(%rbp)
	movq	%rsi, -96(%rbp)
	movq	-96(%rbp), %rax
	leaq	40(%rax), %rbx
	movq	-96(%rbp), %rdx
	leaq	-48(%rbp), %rax
	movq	%rdx, %rsi
	movq	%rax, %rdi
.LEHB44:
	call	_ZN13AbstractToken8ToStringB5cxx11Ev
.LEHE44:
	leaq	-80(%rbp), %rax
	leaq	-48(%rbp), %rcx
	leaq	.LC3(%rip), %rdx
	movq	%rcx, %rsi
	movq	%rax, %rdi
.LEHB45:
	call	_ZStplIcSt11char_traitsIcESaIcEENSt7__cxx1112basic_stringIT_T0_T1_EEOS8_PKS5_
.LEHE45:
	movq	-88(%rbp), %rax
	leaq	-80(%rbp), %rcx
	movq	%rbx, %rdx
	movq	%rcx, %rsi
	movq	%rax, %rdi
.LEHB46:
	call	_ZStplIcSt11char_traitsIcESaIcEENSt7__cxx1112basic_stringIT_T0_T1_EEOS8_RKS8_
.LEHE46:
	nop
	leaq	-80(%rbp), %rax
	movq	%rax, %rdi
	call	_ZNSt7__cxx1112basic_stringIcSt11char_traitsIcESaIcEED1Ev@PLT
	leaq	-48(%rbp), %rax
	movq	%rax, %rdi
	call	_ZNSt7__cxx1112basic_stringIcSt11char_traitsIcESaIcEED1Ev@PLT
	jmp	.L200
.L199:
	movq	%rax, %rbx
	leaq	-80(%rbp), %rax
	movq	%rax, %rdi
	call	_ZNSt7__cxx1112basic_stringIcSt11char_traitsIcESaIcEED1Ev@PLT
	jmp	.L197
.L198:
	movq	%rax, %rbx
.L197:
	leaq	-48(%rbp), %rax
	movq	%rax, %rdi
	call	_ZNSt7__cxx1112basic_stringIcSt11char_traitsIcESaIcEED1Ev@PLT
	movq	%rbx, %rax
	movq	%rax, %rdi
.LEHB47:
	call	_Unwind_Resume@PLT
.LEHE47:
.L200:
	movq	-88(%rbp), %rax
	movq	-8(%rbp), %rbx
	leave
	.cfi_def_cfa 7, 8
	ret
	.cfi_endproc
.LFE3147:
	.section	.gcc_except_table
.LLSDA3147:
	.byte	0xff
	.byte	0xff
	.byte	0x1
	.uleb128 .LLSDACSE3147-.LLSDACSB3147
.LLSDACSB3147:
	.uleb128 .LEHB44-.LFB3147
	.uleb128 .LEHE44-.LEHB44
	.uleb128 0
	.uleb128 0
	.uleb128 .LEHB45-.LFB3147
	.uleb128 .LEHE45-.LEHB45
	.uleb128 .L198-.LFB3147
	.uleb128 0
	.uleb128 .LEHB46-.LFB3147
	.uleb128 .LEHE46-.LEHB46
	.uleb128 .L199-.LFB3147
	.uleb128 0
	.uleb128 .LEHB47-.LFB3147
	.uleb128 .LEHE47-.LEHB47
	.uleb128 0
	.uleb128 0
.LLSDACSE3147:
	.text
	.size	_ZN16StringConstToken8ToStringB5cxx11Ev, .-_ZN16StringConstToken8ToStringB5cxx11Ev
	.align 2
	.globl	_ZN16StringConstToken8GetValueB5cxx11Ev
	.type	_ZN16StringConstToken8GetValueB5cxx11Ev, @function
_ZN16StringConstToken8GetValueB5cxx11Ev:
.LFB3148:
	.cfi_startproc
	pushq	%rbp
	.cfi_def_cfa_offset 16
	.cfi_offset 6, -16
	movq	%rsp, %rbp
	.cfi_def_cfa_register 6
	subq	$16, %rsp
	movq	%rdi, -8(%rbp)
	movq	%rsi, -16(%rbp)
	movq	-16(%rbp), %rax
	leaq	40(%rax), %rdx
	movq	-8(%rbp), %rax
	movq	%rdx, %rsi
	movq	%rax, %rdi
	call	_ZNSt7__cxx1112basic_stringIcSt11char_traitsIcESaIcEEC1ERKS4_@PLT
	movq	-8(%rbp), %rax
	leave
	.cfi_def_cfa 7, 8
	ret
	.cfi_endproc
.LFE3148:
	.size	_ZN16StringConstToken8GetValueB5cxx11Ev, .-_ZN16StringConstToken8GetValueB5cxx11Ev
	.local	_ZL15CharacterGroups
	.comm	_ZL15CharacterGroups,984,32
	.align 2
	.globl	_ZN15CharacterGroupsC2Ev
	.type	_ZN15CharacterGroupsC2Ev, @function
_ZN15CharacterGroupsC2Ev:
.LFB3150:
	.cfi_startproc
	.cfi_personality 0x9b,DW.ref.__gxx_personality_v0
	.cfi_lsda 0x1b,.LLSDA3150
	pushq	%rbp
	.cfi_def_cfa_offset 16
	.cfi_offset 6, -16
	movq	%rsp, %rbp
	.cfi_def_cfa_register 6
	pushq	%r15
	pushq	%r14
	pushq	%r13
	pushq	%r12
	pushq	%rbx
	subq	$2488, %rsp
	.cfi_offset 15, -24
	.cfi_offset 14, -32
	.cfi_offset 13, -40
	.cfi_offset 12, -48
	.cfi_offset 3, -56
	movq	%rdi, -1864(%rbp)
	movq	-1864(%rbp), %rax
	movq	%rax, -1872(%rbp)
	leaq	-1817(%rbp), %rax
	movl	$32, %esi
	movq	%rax, %rdi
	call	_ZN7TwoCharC1Ec
	leaq	-1817(%rbp), %rax
	addq	$2, %rax
	movl	$10, %esi
	movq	%rax, %rdi
	call	_ZN7TwoCharC1Ec
	leaq	-1817(%rbp), %rax
	addq	$4, %rax
	movl	$9, %esi
	movq	%rax, %rdi
	call	_ZN7TwoCharC1Ec
	leaq	-1817(%rbp), %rax
	addq	$6, %rax
	movl	$13, %esi
	movq	%rax, %rdi
	call	_ZN7TwoCharC1Ec
	leaq	-1817(%rbp), %rax
	movq	%rax, %r12
	movl	$4, %r13d
	leaq	-1809(%rbp), %rax
	movq	%rax, %rdi
	call	_ZNSaI7TwoCharEC1Ev
	leaq	-1809(%rbp), %rsi
	movq	%r12, %rcx
	movq	%r13, %rbx
	movq	%r12, %rax
	movq	%r13, %rdx
	movq	%rcx, %rdi
	leaq	-1856(%rbp), %rax
	movq	%rsi, %rcx
	movq	%rdi, %rsi
	movq	%rax, %rdi
.LEHB48:
	call	_ZNSt6vectorI7TwoCharSaIS0_EEC1ESt16initializer_listIS0_ERKS1_
.LEHE48:
	leaq	-1856(%rbp), %rax
	movq	%rax, %rsi
	movq	-1872(%rbp), %rdi
.LEHB49:
	call	_ZN14CharacterGroupC1ESt6vectorI7TwoCharSaIS1_EE
.LEHE49:
	leaq	-1856(%rbp), %rax
	movq	%rax, %rdi
	call	_ZNSt6vectorI7TwoCharSaIS0_EED1Ev
	leaq	-1809(%rbp), %rax
	movq	%rax, %rdi
	call	_ZNSaI7TwoCharED1Ev
	movq	-1864(%rbp), %rax
	leaq	24(%rax), %r12
	leaq	-1779(%rbp), %rax
	movl	$59, %esi
	movq	%rax, %rdi
	call	_ZN7TwoCharC1Ec
	leaq	-1779(%rbp), %rax
	movq	%rax, %r14
	movl	$1, %r15d
	leaq	-1777(%rbp), %rax
	movq	%rax, %rdi
	call	_ZNSaI7TwoCharEC1Ev
	leaq	-1777(%rbp), %rsi
	movq	%r14, %rcx
	movq	%r15, %rbx
	movq	%r14, %rax
	movq	%r15, %rdx
	movq	%rcx, %rdi
	leaq	-1808(%rbp), %rax
	movq	%rsi, %rcx
	movq	%rdi, %rsi
	movq	%rax, %rdi
.LEHB50:
	call	_ZNSt6vectorI7TwoCharSaIS0_EEC1ESt16initializer_listIS0_ERKS1_
.LEHE50:
	leaq	-1808(%rbp), %rax
	movq	%rax, %rsi
	movq	%r12, %rdi
.LEHB51:
	call	_ZN14CharacterGroupC1ESt6vectorI7TwoCharSaIS1_EE
.LEHE51:
	leaq	-1808(%rbp), %rax
	movq	%rax, %rdi
	call	_ZNSt6vectorI7TwoCharSaIS0_EED1Ev
	leaq	-1777(%rbp), %rax
	movq	%rax, %rdi
	call	_ZNSaI7TwoCharED1Ev
	movq	-1864(%rbp), %rax
	leaq	48(%rax), %r12
	leaq	-1744(%rbp), %rax
	movl	$97, %esi
	movq	%rax, %rdi
	call	_ZN7TwoCharC1Ec
	leaq	-1744(%rbp), %rax
	addq	$2, %rax
	movl	$98, %esi
	movq	%rax, %rdi
	call	_ZN7TwoCharC1Ec
	leaq	-1744(%rbp), %rax
	addq	$4, %rax
	movl	$99, %esi
	movq	%rax, %rdi
	call	_ZN7TwoCharC1Ec
	leaq	-1744(%rbp), %rax
	addq	$6, %rax
	movl	$100, %esi
	movq	%rax, %rdi
	call	_ZN7TwoCharC1Ec
	leaq	-1744(%rbp), %rax
	addq	$8, %rax
	movl	$101, %esi
	movq	%rax, %rdi
	call	_ZN7TwoCharC1Ec
	leaq	-1744(%rbp), %rax
	addq	$10, %rax
	movl	$102, %esi
	movq	%rax, %rdi
	call	_ZN7TwoCharC1Ec
	leaq	-1744(%rbp), %rax
	addq	$12, %rax
	movl	$103, %esi
	movq	%rax, %rdi
	call	_ZN7TwoCharC1Ec
	leaq	-1744(%rbp), %rax
	addq	$14, %rax
	movl	$104, %esi
	movq	%rax, %rdi
	call	_ZN7TwoCharC1Ec
	leaq	-1744(%rbp), %rax
	addq	$16, %rax
	movl	$105, %esi
	movq	%rax, %rdi
	call	_ZN7TwoCharC1Ec
	leaq	-1744(%rbp), %rax
	addq	$18, %rax
	movl	$106, %esi
	movq	%rax, %rdi
	call	_ZN7TwoCharC1Ec
	leaq	-1744(%rbp), %rax
	addq	$20, %rax
	movl	$107, %esi
	movq	%rax, %rdi
	call	_ZN7TwoCharC1Ec
	leaq	-1744(%rbp), %rax
	addq	$22, %rax
	movl	$108, %esi
	movq	%rax, %rdi
	call	_ZN7TwoCharC1Ec
	leaq	-1744(%rbp), %rax
	addq	$24, %rax
	movl	$109, %esi
	movq	%rax, %rdi
	call	_ZN7TwoCharC1Ec
	leaq	-1744(%rbp), %rax
	addq	$26, %rax
	movl	$110, %esi
	movq	%rax, %rdi
	call	_ZN7TwoCharC1Ec
	leaq	-1744(%rbp), %rax
	addq	$28, %rax
	movl	$111, %esi
	movq	%rax, %rdi
	call	_ZN7TwoCharC1Ec
	leaq	-1744(%rbp), %rax
	addq	$30, %rax
	movl	$112, %esi
	movq	%rax, %rdi
	call	_ZN7TwoCharC1Ec
	leaq	-1744(%rbp), %rax
	addq	$32, %rax
	movl	$113, %esi
	movq	%rax, %rdi
	call	_ZN7TwoCharC1Ec
	leaq	-1744(%rbp), %rax
	addq	$34, %rax
	movl	$114, %esi
	movq	%rax, %rdi
	call	_ZN7TwoCharC1Ec
	leaq	-1744(%rbp), %rax
	addq	$36, %rax
	movl	$115, %esi
	movq	%rax, %rdi
	call	_ZN7TwoCharC1Ec
	leaq	-1744(%rbp), %rax
	addq	$38, %rax
	movl	$116, %esi
	movq	%rax, %rdi
	call	_ZN7TwoCharC1Ec
	leaq	-1744(%rbp), %rax
	addq	$40, %rax
	movl	$117, %esi
	movq	%rax, %rdi
	call	_ZN7TwoCharC1Ec
	leaq	-1744(%rbp), %rax
	addq	$42, %rax
	movl	$118, %esi
	movq	%rax, %rdi
	call	_ZN7TwoCharC1Ec
	leaq	-1744(%rbp), %rax
	addq	$44, %rax
	movl	$119, %esi
	movq	%rax, %rdi
	call	_ZN7TwoCharC1Ec
	leaq	-1744(%rbp), %rax
	addq	$46, %rax
	movl	$120, %esi
	movq	%rax, %rdi
	call	_ZN7TwoCharC1Ec
	leaq	-1744(%rbp), %rax
	addq	$48, %rax
	movl	$121, %esi
	movq	%rax, %rdi
	call	_ZN7TwoCharC1Ec
	leaq	-1744(%rbp), %rax
	addq	$50, %rax
	movl	$122, %esi
	movq	%rax, %rdi
	call	_ZN7TwoCharC1Ec
	leaq	-1744(%rbp), %rax
	movq	%rax, -2528(%rbp)
	movq	$26, -2520(%rbp)
	leaq	-1681(%rbp), %rax
	movq	%rax, %rdi
	call	_ZNSaI7TwoCharEC1Ev
	leaq	-1681(%rbp), %rsi
	movq	-2528(%rbp), %rax
	movq	-2520(%rbp), %rdx
	movq	%rax, %rcx
	movq	%rdx, %rbx
	movq	%rcx, %rdi
	leaq	-1776(%rbp), %rax
	movq	%rsi, %rcx
	movq	%rdi, %rsi
	movq	%rax, %rdi
.LEHB52:
	call	_ZNSt6vectorI7TwoCharSaIS0_EEC1ESt16initializer_listIS0_ERKS1_
.LEHE52:
	leaq	-1776(%rbp), %rax
	movq	%rax, %rsi
	movq	%r12, %rdi
.LEHB53:
	call	_ZN14CharacterGroupC1ESt6vectorI7TwoCharSaIS1_EE
.LEHE53:
	leaq	-1776(%rbp), %rax
	movq	%rax, %rdi
	call	_ZNSt6vectorI7TwoCharSaIS0_EED1Ev
	leaq	-1681(%rbp), %rax
	movq	%rax, %rdi
	call	_ZNSaI7TwoCharED1Ev
	movq	-1864(%rbp), %rax
	leaq	72(%rax), %r12
	leaq	-1648(%rbp), %rax
	movl	$65, %esi
	movq	%rax, %rdi
	call	_ZN7TwoCharC1Ec
	leaq	-1648(%rbp), %rax
	addq	$2, %rax
	movl	$66, %esi
	movq	%rax, %rdi
	call	_ZN7TwoCharC1Ec
	leaq	-1648(%rbp), %rax
	addq	$4, %rax
	movl	$67, %esi
	movq	%rax, %rdi
	call	_ZN7TwoCharC1Ec
	leaq	-1648(%rbp), %rax
	addq	$6, %rax
	movl	$68, %esi
	movq	%rax, %rdi
	call	_ZN7TwoCharC1Ec
	leaq	-1648(%rbp), %rax
	addq	$8, %rax
	movl	$69, %esi
	movq	%rax, %rdi
	call	_ZN7TwoCharC1Ec
	leaq	-1648(%rbp), %rax
	addq	$10, %rax
	movl	$70, %esi
	movq	%rax, %rdi
	call	_ZN7TwoCharC1Ec
	leaq	-1648(%rbp), %rax
	addq	$12, %rax
	movl	$71, %esi
	movq	%rax, %rdi
	call	_ZN7TwoCharC1Ec
	leaq	-1648(%rbp), %rax
	addq	$14, %rax
	movl	$72, %esi
	movq	%rax, %rdi
	call	_ZN7TwoCharC1Ec
	leaq	-1648(%rbp), %rax
	addq	$16, %rax
	movl	$73, %esi
	movq	%rax, %rdi
	call	_ZN7TwoCharC1Ec
	leaq	-1648(%rbp), %rax
	addq	$18, %rax
	movl	$74, %esi
	movq	%rax, %rdi
	call	_ZN7TwoCharC1Ec
	leaq	-1648(%rbp), %rax
	addq	$20, %rax
	movl	$75, %esi
	movq	%rax, %rdi
	call	_ZN7TwoCharC1Ec
	leaq	-1648(%rbp), %rax
	addq	$22, %rax
	movl	$76, %esi
	movq	%rax, %rdi
	call	_ZN7TwoCharC1Ec
	leaq	-1648(%rbp), %rax
	addq	$24, %rax
	movl	$77, %esi
	movq	%rax, %rdi
	call	_ZN7TwoCharC1Ec
	leaq	-1648(%rbp), %rax
	addq	$26, %rax
	movl	$78, %esi
	movq	%rax, %rdi
	call	_ZN7TwoCharC1Ec
	leaq	-1648(%rbp), %rax
	addq	$28, %rax
	movl	$79, %esi
	movq	%rax, %rdi
	call	_ZN7TwoCharC1Ec
	leaq	-1648(%rbp), %rax
	addq	$30, %rax
	movl	$80, %esi
	movq	%rax, %rdi
	call	_ZN7TwoCharC1Ec
	leaq	-1648(%rbp), %rax
	addq	$32, %rax
	movl	$81, %esi
	movq	%rax, %rdi
	call	_ZN7TwoCharC1Ec
	leaq	-1648(%rbp), %rax
	addq	$34, %rax
	movl	$82, %esi
	movq	%rax, %rdi
	call	_ZN7TwoCharC1Ec
	leaq	-1648(%rbp), %rax
	addq	$36, %rax
	movl	$83, %esi
	movq	%rax, %rdi
	call	_ZN7TwoCharC1Ec
	leaq	-1648(%rbp), %rax
	addq	$38, %rax
	movl	$84, %esi
	movq	%rax, %rdi
	call	_ZN7TwoCharC1Ec
	leaq	-1648(%rbp), %rax
	addq	$40, %rax
	movl	$85, %esi
	movq	%rax, %rdi
	call	_ZN7TwoCharC1Ec
	leaq	-1648(%rbp), %rax
	addq	$42, %rax
	movl	$86, %esi
	movq	%rax, %rdi
	call	_ZN7TwoCharC1Ec
	leaq	-1648(%rbp), %rax
	addq	$44, %rax
	movl	$87, %esi
	movq	%rax, %rdi
	call	_ZN7TwoCharC1Ec
	leaq	-1648(%rbp), %rax
	addq	$46, %rax
	movl	$88, %esi
	movq	%rax, %rdi
	call	_ZN7TwoCharC1Ec
	leaq	-1648(%rbp), %rax
	addq	$48, %rax
	movl	$89, %esi
	movq	%rax, %rdi
	call	_ZN7TwoCharC1Ec
	leaq	-1648(%rbp), %rax
	addq	$50, %rax
	movl	$90, %esi
	movq	%rax, %rdi
	call	_ZN7TwoCharC1Ec
	leaq	-1648(%rbp), %rax
	movq	%rax, -2512(%rbp)
	movq	$26, -2504(%rbp)
	leaq	-1585(%rbp), %rax
	movq	%rax, %rdi
	call	_ZNSaI7TwoCharEC1Ev
	leaq	-1585(%rbp), %rsi
	movq	-2512(%rbp), %rax
	movq	-2504(%rbp), %rdx
	movq	%rax, %rcx
	movq	%rdx, %rbx
	movq	%rcx, %rdi
	leaq	-1680(%rbp), %rax
	movq	%rsi, %rcx
	movq	%rdi, %rsi
	movq	%rax, %rdi
.LEHB54:
	call	_ZNSt6vectorI7TwoCharSaIS0_EEC1ESt16initializer_listIS0_ERKS1_
.LEHE54:
	leaq	-1680(%rbp), %rax
	movq	%rax, %rsi
	movq	%r12, %rdi
.LEHB55:
	call	_ZN14CharacterGroupC1ESt6vectorI7TwoCharSaIS1_EE
.LEHE55:
	leaq	-1680(%rbp), %rax
	movq	%rax, %rdi
	call	_ZNSt6vectorI7TwoCharSaIS0_EED1Ev
	leaq	-1585(%rbp), %rax
	movq	%rax, %rdi
	call	_ZNSaI7TwoCharED1Ev
	movq	-1864(%rbp), %rax
	leaq	96(%rax), %r12
	leaq	-1552(%rbp), %r13
	movl	$1, %r14d
	movq	-1864(%rbp), %rax
	addq	$48, %rax
	movq	%rax, %rsi
	movq	%r13, %rdi
.LEHB56:
	call	_ZN14CharacterGroupC1ERKS_
	leaq	24(%r13), %rdx
	subq	$1, %r14
	movq	-1864(%rbp), %rax
	addq	$72, %rax
	movq	%rax, %rsi
	movq	%rdx, %rdi
	call	_ZN14CharacterGroupC1ERKS_
.LEHE56:
	movl	$1, %r14d
	leaq	-1552(%rbp), %rax
	movq	%rax, -2496(%rbp)
	movq	$2, -2488(%rbp)
	leaq	-1489(%rbp), %rax
	movq	%rax, %rdi
	call	_ZNSaI14CharacterGroupEC1Ev
	leaq	-1489(%rbp), %rsi
	movq	-2496(%rbp), %rax
	movq	-2488(%rbp), %rdx
	movq	%rax, %rcx
	movq	%rdx, %rbx
	movq	%rcx, %rdi
	leaq	-1584(%rbp), %rax
	movq	%rsi, %rcx
	movq	%rdi, %rsi
	movq	%rax, %rdi
.LEHB57:
	call	_ZNSt6vectorI14CharacterGroupSaIS0_EEC1ESt16initializer_listIS0_ERKS1_
.LEHE57:
	pxor	%xmm0, %xmm0
	movaps	%xmm0, -1488(%rbp)
	movq	%xmm0, -1472(%rbp)
	leaq	-1488(%rbp), %rax
	movq	%rax, %rdi
	call	_ZNSt6vectorI7TwoCharSaIS0_EEC1Ev
	leaq	-1584(%rbp), %rdx
	leaq	-1488(%rbp), %rax
	movq	%rax, %rsi
	movq	%r12, %rdi
.LEHB58:
	call	_ZN14CharacterGroupC1ESt6vectorI7TwoCharSaIS1_EES0_IS_SaIS_EE
.LEHE58:
	leaq	-1488(%rbp), %rax
	movq	%rax, %rdi
	call	_ZNSt6vectorI7TwoCharSaIS0_EED1Ev
	leaq	-1584(%rbp), %rax
	movq	%rax, %rdi
	call	_ZNSt6vectorI14CharacterGroupSaIS0_EED1Ev
	leaq	-1489(%rbp), %rax
	movq	%rax, %rdi
	call	_ZNSaI14CharacterGroupED1Ev
	leaq	-1552(%rbp), %rbx
	addq	$48, %rbx
.L205:
	leaq	-1552(%rbp), %rax
	cmpq	%rax, %rbx
	je	.L204
	subq	$24, %rbx
	movq	%rbx, %rdi
	call	_ZN14CharacterGroupD1Ev
	jmp	.L205
.L204:
	movq	-1864(%rbp), %rax
	leaq	120(%rax), %r12
	leaq	-1424(%rbp), %rax
	movl	$48, %esi
	movq	%rax, %rdi
	call	_ZN7TwoCharC1Ec
	leaq	-1424(%rbp), %rax
	addq	$2, %rax
	movl	$49, %esi
	movq	%rax, %rdi
	call	_ZN7TwoCharC1Ec
	leaq	-1424(%rbp), %rax
	addq	$4, %rax
	movl	$50, %esi
	movq	%rax, %rdi
	call	_ZN7TwoCharC1Ec
	leaq	-1424(%rbp), %rax
	addq	$6, %rax
	movl	$51, %esi
	movq	%rax, %rdi
	call	_ZN7TwoCharC1Ec
	leaq	-1424(%rbp), %rax
	addq	$8, %rax
	movl	$52, %esi
	movq	%rax, %rdi
	call	_ZN7TwoCharC1Ec
	leaq	-1424(%rbp), %rax
	addq	$10, %rax
	movl	$53, %esi
	movq	%rax, %rdi
	call	_ZN7TwoCharC1Ec
	leaq	-1424(%rbp), %rax
	addq	$12, %rax
	movl	$54, %esi
	movq	%rax, %rdi
	call	_ZN7TwoCharC1Ec
	leaq	-1424(%rbp), %rax
	addq	$14, %rax
	movl	$55, %esi
	movq	%rax, %rdi
	call	_ZN7TwoCharC1Ec
	leaq	-1424(%rbp), %rax
	addq	$16, %rax
	movl	$56, %esi
	movq	%rax, %rdi
	call	_ZN7TwoCharC1Ec
	leaq	-1424(%rbp), %rax
	addq	$18, %rax
	movl	$57, %esi
	movq	%rax, %rdi
	call	_ZN7TwoCharC1Ec
	leaq	-1424(%rbp), %rax
	movq	%rax, -2480(%rbp)
	movq	$10, -2472(%rbp)
	leaq	-1393(%rbp), %rax
	movq	%rax, %rdi
	call	_ZNSaI7TwoCharEC1Ev
	leaq	-1393(%rbp), %rsi
	movq	-2480(%rbp), %rax
	movq	-2472(%rbp), %rdx
	movq	%rax, %rcx
	movq	%rdx, %rbx
	movq	%rcx, %rdi
	leaq	-1456(%rbp), %rax
	movq	%rsi, %rcx
	movq	%rdi, %rsi
	movq	%rax, %rdi
.LEHB59:
	call	_ZNSt6vectorI7TwoCharSaIS0_EEC1ESt16initializer_listIS0_ERKS1_
.LEHE59:
	leaq	-1456(%rbp), %rax
	movq	%rax, %rsi
	movq	%r12, %rdi
.LEHB60:
	call	_ZN14CharacterGroupC1ESt6vectorI7TwoCharSaIS1_EE
.LEHE60:
	leaq	-1456(%rbp), %rax
	movq	%rax, %rdi
	call	_ZNSt6vectorI7TwoCharSaIS0_EED1Ev
	leaq	-1393(%rbp), %rax
	movq	%rax, %rdi
	call	_ZNSaI7TwoCharED1Ev
	movq	-1864(%rbp), %rax
	leaq	144(%rax), %r12
	leaq	-1360(%rbp), %r13
	movl	$1, %r14d
	movq	-1864(%rbp), %rax
	addq	$96, %rax
	movq	%rax, %rsi
	movq	%r13, %rdi
.LEHB61:
	call	_ZN14CharacterGroupC1ERKS_
	leaq	24(%r13), %rdx
	subq	$1, %r14
	movq	-1864(%rbp), %rax
	addq	$120, %rax
	movq	%rax, %rsi
	movq	%rdx, %rdi
	call	_ZN14CharacterGroupC1ERKS_
.LEHE61:
	movl	$1, %r14d
	leaq	-1360(%rbp), %rax
	movq	%rax, -2464(%rbp)
	movq	$2, -2456(%rbp)
	leaq	-1297(%rbp), %rax
	movq	%rax, %rdi
	call	_ZNSaI14CharacterGroupEC1Ev
	leaq	-1297(%rbp), %rsi
	movq	-2464(%rbp), %rax
	movq	-2456(%rbp), %rdx
	movq	%rax, %rcx
	movq	%rdx, %rbx
	movq	%rcx, %rdi
	leaq	-1392(%rbp), %rax
	movq	%rsi, %rcx
	movq	%rdi, %rsi
	movq	%rax, %rdi
.LEHB62:
	call	_ZNSt6vectorI14CharacterGroupSaIS0_EEC1ESt16initializer_listIS0_ERKS1_
.LEHE62:
	leaq	-1392(%rbp), %rax
	movq	%rax, %rsi
	movq	%r12, %rdi
.LEHB63:
	call	_ZN14CharacterGroupC1ESt6vectorIS_SaIS_EE
.LEHE63:
	leaq	-1392(%rbp), %rax
	movq	%rax, %rdi
	call	_ZNSt6vectorI14CharacterGroupSaIS0_EED1Ev
	leaq	-1297(%rbp), %rax
	movq	%rax, %rdi
	call	_ZNSaI14CharacterGroupED1Ev
	leaq	-1360(%rbp), %rbx
	addq	$48, %rbx
.L207:
	leaq	-1360(%rbp), %rax
	cmpq	%rax, %rbx
	je	.L206
	subq	$24, %rbx
	movq	%rbx, %rdi
	call	_ZN14CharacterGroupD1Ev
	jmp	.L207
.L206:
	movq	-1864(%rbp), %rax
	leaq	168(%rax), %r12
	leaq	-1267(%rbp), %rax
	movl	$34, %esi
	movq	%rax, %rdi
	call	_ZN7TwoCharC1Ec
	leaq	-1267(%rbp), %rax
	movq	%rax, -2448(%rbp)
	movq	$1, -2440(%rbp)
	leaq	-1265(%rbp), %rax
	movq	%rax, %rdi
	call	_ZNSaI7TwoCharEC1Ev
	leaq	-1265(%rbp), %rsi
	movq	-2448(%rbp), %rax
	movq	-2440(%rbp), %rdx
	movq	%rax, %rcx
	movq	%rdx, %rbx
	movq	%rcx, %rdi
	leaq	-1296(%rbp), %rax
	movq	%rsi, %rcx
	movq	%rdi, %rsi
	movq	%rax, %rdi
.LEHB64:
	call	_ZNSt6vectorI7TwoCharSaIS0_EEC1ESt16initializer_listIS0_ERKS1_
.LEHE64:
	leaq	-1296(%rbp), %rax
	movq	%rax, %rsi
	movq	%r12, %rdi
.LEHB65:
	call	_ZN14CharacterGroupC1ESt6vectorI7TwoCharSaIS1_EE
.LEHE65:
	leaq	-1296(%rbp), %rax
	movq	%rax, %rdi
	call	_ZNSt6vectorI7TwoCharSaIS0_EED1Ev
	leaq	-1265(%rbp), %rax
	movq	%rax, %rdi
	call	_ZNSaI7TwoCharED1Ev
	movq	-1864(%rbp), %rax
	leaq	192(%rax), %r12
	leaq	-1232(%rbp), %r13
	movl	$0, %r14d
	movq	-1864(%rbp), %rax
	addq	$96, %rax
	movq	%rax, %rsi
	movq	%r13, %rdi
.LEHB66:
	call	_ZN14CharacterGroupC1ERKS_
.LEHE66:
	movl	$0, %r14d
	leaq	-1232(%rbp), %rax
	movq	%rax, -2432(%rbp)
	movq	$1, -2424(%rbp)
	leaq	-1201(%rbp), %rax
	movq	%rax, %rdi
	call	_ZNSaI14CharacterGroupEC1Ev
	leaq	-1201(%rbp), %rsi
	movq	-2432(%rbp), %rax
	movq	-2424(%rbp), %rdx
	movq	%rax, %rcx
	movq	%rdx, %rbx
	movq	%rcx, %rdi
	leaq	-1264(%rbp), %rax
	movq	%rsi, %rcx
	movq	%rdi, %rsi
	movq	%rax, %rdi
.LEHB67:
	call	_ZNSt6vectorI14CharacterGroupSaIS0_EEC1ESt16initializer_listIS0_ERKS1_
.LEHE67:
	leaq	-1171(%rbp), %rax
	movl	$95, %esi
	movq	%rax, %rdi
	call	_ZN7TwoCharC1Ec
	leaq	-1171(%rbp), %rax
	movq	%rax, -2416(%rbp)
	movq	$1, -2408(%rbp)
	leaq	-1169(%rbp), %rax
	movq	%rax, %rdi
	call	_ZNSaI7TwoCharEC1Ev
	leaq	-1169(%rbp), %rsi
	movq	-2416(%rbp), %rax
	movq	-2408(%rbp), %rdx
	movq	%rax, %rcx
	movq	%rdx, %rbx
	movq	%rcx, %rdi
	leaq	-1200(%rbp), %rax
	movq	%rsi, %rcx
	movq	%rdi, %rsi
	movq	%rax, %rdi
.LEHB68:
	call	_ZNSt6vectorI7TwoCharSaIS0_EEC1ESt16initializer_listIS0_ERKS1_
.LEHE68:
	leaq	-1264(%rbp), %rdx
	leaq	-1200(%rbp), %rax
	movq	%rax, %rsi
	movq	%r12, %rdi
.LEHB69:
	call	_ZN14CharacterGroupC1ESt6vectorI7TwoCharSaIS1_EES0_IS_SaIS_EE
.LEHE69:
	leaq	-1200(%rbp), %rax
	movq	%rax, %rdi
	call	_ZNSt6vectorI7TwoCharSaIS0_EED1Ev
	leaq	-1169(%rbp), %rax
	movq	%rax, %rdi
	call	_ZNSaI7TwoCharED1Ev
	leaq	-1264(%rbp), %rax
	movq	%rax, %rdi
	call	_ZNSt6vectorI14CharacterGroupSaIS0_EED1Ev
	leaq	-1201(%rbp), %rax
	movq	%rax, %rdi
	call	_ZNSaI14CharacterGroupED1Ev
	leaq	-1232(%rbp), %rbx
	addq	$24, %rbx
.L209:
	leaq	-1232(%rbp), %rax
	cmpq	%rax, %rbx
	je	.L208
	subq	$24, %rbx
	movq	%rbx, %rdi
	call	_ZN14CharacterGroupD1Ev
	jmp	.L209
.L208:
	movq	-1864(%rbp), %rax
	leaq	216(%rax), %r12
	leaq	-1136(%rbp), %r13
	movl	$1, %r14d
	movq	-1864(%rbp), %rax
	addq	$96, %rax
	movq	%rax, %rsi
	movq	%r13, %rdi
.LEHB70:
	call	_ZN14CharacterGroupC1ERKS_
	leaq	24(%r13), %rdx
	subq	$1, %r14
	movq	-1864(%rbp), %rax
	addq	$120, %rax
	movq	%rax, %rsi
	movq	%rdx, %rdi
	call	_ZN14CharacterGroupC1ERKS_
.LEHE70:
	movl	$1, %r14d
	leaq	-1136(%rbp), %rax
	movq	%rax, -2400(%rbp)
	movq	$2, -2392(%rbp)
	leaq	-1073(%rbp), %rax
	movq	%rax, %rdi
	call	_ZNSaI14CharacterGroupEC1Ev
	leaq	-1073(%rbp), %rsi
	movq	-2400(%rbp), %rax
	movq	-2392(%rbp), %rdx
	movq	%rax, %rcx
	movq	%rdx, %rbx
	movq	%rcx, %rdi
	leaq	-1168(%rbp), %rax
	movq	%rsi, %rcx
	movq	%rdi, %rsi
	movq	%rax, %rdi
.LEHB71:
	call	_ZNSt6vectorI14CharacterGroupSaIS0_EEC1ESt16initializer_listIS0_ERKS1_
.LEHE71:
	leaq	-1043(%rbp), %rax
	movl	$95, %esi
	movq	%rax, %rdi
	call	_ZN7TwoCharC1Ec
	leaq	-1043(%rbp), %rax
	movq	%rax, -2384(%rbp)
	movq	$1, -2376(%rbp)
	leaq	-1041(%rbp), %rax
	movq	%rax, %rdi
	call	_ZNSaI7TwoCharEC1Ev
	leaq	-1041(%rbp), %rsi
	movq	-2384(%rbp), %rax
	movq	-2376(%rbp), %rdx
	movq	%rax, %rcx
	movq	%rdx, %rbx
	movq	%rcx, %rdi
	leaq	-1072(%rbp), %rax
	movq	%rsi, %rcx
	movq	%rdi, %rsi
	movq	%rax, %rdi
.LEHB72:
	call	_ZNSt6vectorI7TwoCharSaIS0_EEC1ESt16initializer_listIS0_ERKS1_
.LEHE72:
	leaq	-1168(%rbp), %rdx
	leaq	-1072(%rbp), %rax
	movq	%rax, %rsi
	movq	%r12, %rdi
.LEHB73:
	call	_ZN14CharacterGroupC1ESt6vectorI7TwoCharSaIS1_EES0_IS_SaIS_EE
.LEHE73:
	leaq	-1072(%rbp), %rax
	movq	%rax, %rdi
	call	_ZNSt6vectorI7TwoCharSaIS0_EED1Ev
	leaq	-1041(%rbp), %rax
	movq	%rax, %rdi
	call	_ZNSaI7TwoCharED1Ev
	leaq	-1168(%rbp), %rax
	movq	%rax, %rdi
	call	_ZNSt6vectorI14CharacterGroupSaIS0_EED1Ev
	leaq	-1073(%rbp), %rax
	movq	%rax, %rdi
	call	_ZNSaI14CharacterGroupED1Ev
	leaq	-1136(%rbp), %rbx
	addq	$48, %rbx
.L211:
	leaq	-1136(%rbp), %rax
	cmpq	%rax, %rbx
	je	.L210
	subq	$24, %rbx
	movq	%rbx, %rdi
	call	_ZN14CharacterGroupD1Ev
	jmp	.L211
.L210:
	movq	-1864(%rbp), %rax
	leaq	240(%rax), %r12
	leaq	-1011(%rbp), %rax
	movl	$123, %esi
	movq	%rax, %rdi
	call	_ZN7TwoCharC1Ec
	leaq	-1011(%rbp), %rax
	movq	%rax, -2368(%rbp)
	movq	$1, -2360(%rbp)
	leaq	-1009(%rbp), %rax
	movq	%rax, %rdi
	call	_ZNSaI7TwoCharEC1Ev
	leaq	-1009(%rbp), %rsi
	movq	-2368(%rbp), %rax
	movq	-2360(%rbp), %rdx
	movq	%rax, %rcx
	movq	%rdx, %rbx
	movq	%rcx, %rdi
	leaq	-1040(%rbp), %rax
	movq	%rsi, %rcx
	movq	%rdi, %rsi
	movq	%rax, %rdi
.LEHB74:
	call	_ZNSt6vectorI7TwoCharSaIS0_EEC1ESt16initializer_listIS0_ERKS1_
.LEHE74:
	leaq	-1040(%rbp), %rax
	movq	%rax, %rsi
	movq	%r12, %rdi
.LEHB75:
	call	_ZN14CharacterGroupC1ESt6vectorI7TwoCharSaIS1_EE
.LEHE75:
	leaq	-1040(%rbp), %rax
	movq	%rax, %rdi
	call	_ZNSt6vectorI7TwoCharSaIS0_EED1Ev
	leaq	-1009(%rbp), %rax
	movq	%rax, %rdi
	call	_ZNSaI7TwoCharED1Ev
	movq	-1864(%rbp), %rax
	leaq	264(%rax), %r12
	leaq	-979(%rbp), %rax
	movl	$125, %esi
	movq	%rax, %rdi
	call	_ZN7TwoCharC1Ec
	leaq	-979(%rbp), %rax
	movq	%rax, -2352(%rbp)
	movq	$1, -2344(%rbp)
	leaq	-977(%rbp), %rax
	movq	%rax, %rdi
	call	_ZNSaI7TwoCharEC1Ev
	leaq	-977(%rbp), %rsi
	movq	-2352(%rbp), %rax
	movq	-2344(%rbp), %rdx
	movq	%rax, %rcx
	movq	%rdx, %rbx
	movq	%rcx, %rdi
	leaq	-1008(%rbp), %rax
	movq	%rsi, %rcx
	movq	%rdi, %rsi
	movq	%rax, %rdi
.LEHB76:
	call	_ZNSt6vectorI7TwoCharSaIS0_EEC1ESt16initializer_listIS0_ERKS1_
.LEHE76:
	leaq	-1008(%rbp), %rax
	movq	%rax, %rsi
	movq	%r12, %rdi
.LEHB77:
	call	_ZN14CharacterGroupC1ESt6vectorI7TwoCharSaIS1_EE
.LEHE77:
	leaq	-1008(%rbp), %rax
	movq	%rax, %rdi
	call	_ZNSt6vectorI7TwoCharSaIS0_EED1Ev
	leaq	-977(%rbp), %rax
	movq	%rax, %rdi
	call	_ZNSaI7TwoCharED1Ev
	movq	-1864(%rbp), %rax
	leaq	288(%rax), %r12
	leaq	-947(%rbp), %rax
	movl	$40, %esi
	movq	%rax, %rdi
	call	_ZN7TwoCharC1Ec
	leaq	-947(%rbp), %rax
	movq	%rax, -2336(%rbp)
	movq	$1, -2328(%rbp)
	leaq	-945(%rbp), %rax
	movq	%rax, %rdi
	call	_ZNSaI7TwoCharEC1Ev
	leaq	-945(%rbp), %rsi
	movq	-2336(%rbp), %rax
	movq	-2328(%rbp), %rdx
	movq	%rax, %rcx
	movq	%rdx, %rbx
	movq	%rcx, %rdi
	leaq	-976(%rbp), %rax
	movq	%rsi, %rcx
	movq	%rdi, %rsi
	movq	%rax, %rdi
.LEHB78:
	call	_ZNSt6vectorI7TwoCharSaIS0_EEC1ESt16initializer_listIS0_ERKS1_
.LEHE78:
	leaq	-976(%rbp), %rax
	movq	%rax, %rsi
	movq	%r12, %rdi
.LEHB79:
	call	_ZN14CharacterGroupC1ESt6vectorI7TwoCharSaIS1_EE
.LEHE79:
	leaq	-976(%rbp), %rax
	movq	%rax, %rdi
	call	_ZNSt6vectorI7TwoCharSaIS0_EED1Ev
	leaq	-945(%rbp), %rax
	movq	%rax, %rdi
	call	_ZNSaI7TwoCharED1Ev
	movq	-1864(%rbp), %rax
	leaq	312(%rax), %r12
	leaq	-915(%rbp), %rax
	movl	$41, %esi
	movq	%rax, %rdi
	call	_ZN7TwoCharC1Ec
	leaq	-915(%rbp), %rax
	movq	%rax, -2320(%rbp)
	movq	$1, -2312(%rbp)
	leaq	-913(%rbp), %rax
	movq	%rax, %rdi
	call	_ZNSaI7TwoCharEC1Ev
	leaq	-913(%rbp), %rsi
	movq	-2320(%rbp), %rax
	movq	-2312(%rbp), %rdx
	movq	%rax, %rcx
	movq	%rdx, %rbx
	movq	%rcx, %rdi
	leaq	-944(%rbp), %rax
	movq	%rsi, %rcx
	movq	%rdi, %rsi
	movq	%rax, %rdi
.LEHB80:
	call	_ZNSt6vectorI7TwoCharSaIS0_EEC1ESt16initializer_listIS0_ERKS1_
.LEHE80:
	leaq	-944(%rbp), %rax
	movq	%rax, %rsi
	movq	%r12, %rdi
.LEHB81:
	call	_ZN14CharacterGroupC1ESt6vectorI7TwoCharSaIS1_EE
.LEHE81:
	leaq	-944(%rbp), %rax
	movq	%rax, %rdi
	call	_ZNSt6vectorI7TwoCharSaIS0_EED1Ev
	leaq	-913(%rbp), %rax
	movq	%rax, %rdi
	call	_ZNSaI7TwoCharED1Ev
	movq	-1864(%rbp), %rax
	leaq	336(%rax), %r12
	leaq	-883(%rbp), %rax
	movl	$44, %esi
	movq	%rax, %rdi
	call	_ZN7TwoCharC1Ec
	leaq	-883(%rbp), %rax
	movq	%rax, -2304(%rbp)
	movq	$1, -2296(%rbp)
	leaq	-881(%rbp), %rax
	movq	%rax, %rdi
	call	_ZNSaI7TwoCharEC1Ev
	leaq	-881(%rbp), %rsi
	movq	-2304(%rbp), %rax
	movq	-2296(%rbp), %rdx
	movq	%rax, %rcx
	movq	%rdx, %rbx
	movq	%rcx, %rdi
	leaq	-912(%rbp), %rax
	movq	%rsi, %rcx
	movq	%rdi, %rsi
	movq	%rax, %rdi
.LEHB82:
	call	_ZNSt6vectorI7TwoCharSaIS0_EEC1ESt16initializer_listIS0_ERKS1_
.LEHE82:
	leaq	-912(%rbp), %rax
	movq	%rax, %rsi
	movq	%r12, %rdi
.LEHB83:
	call	_ZN14CharacterGroupC1ESt6vectorI7TwoCharSaIS1_EE
.LEHE83:
	leaq	-912(%rbp), %rax
	movq	%rax, %rdi
	call	_ZNSt6vectorI7TwoCharSaIS0_EED1Ev
	leaq	-881(%rbp), %rax
	movq	%rax, %rdi
	call	_ZNSaI7TwoCharED1Ev
	movq	-1864(%rbp), %rax
	leaq	360(%rax), %r12
	leaq	-851(%rbp), %rax
	movl	$61, %edx
	movl	$61, %esi
	movq	%rax, %rdi
	call	_ZN7TwoCharC1Ecc
	leaq	-851(%rbp), %rax
	movq	%rax, -2288(%rbp)
	movq	$1, -2280(%rbp)
	leaq	-849(%rbp), %rax
	movq	%rax, %rdi
	call	_ZNSaI7TwoCharEC1Ev
	leaq	-849(%rbp), %rsi
	movq	-2288(%rbp), %rax
	movq	-2280(%rbp), %rdx
	movq	%rax, %rcx
	movq	%rdx, %rbx
	movq	%rcx, %rdi
	leaq	-880(%rbp), %rax
	movq	%rsi, %rcx
	movq	%rdi, %rsi
	movq	%rax, %rdi
.LEHB84:
	call	_ZNSt6vectorI7TwoCharSaIS0_EEC1ESt16initializer_listIS0_ERKS1_
.LEHE84:
	leaq	-880(%rbp), %rax
	movq	%rax, %rsi
	movq	%r12, %rdi
.LEHB85:
	call	_ZN14CharacterGroupC1ESt6vectorI7TwoCharSaIS1_EE
.LEHE85:
	leaq	-880(%rbp), %rax
	movq	%rax, %rdi
	call	_ZNSt6vectorI7TwoCharSaIS0_EED1Ev
	leaq	-849(%rbp), %rax
	movq	%rax, %rdi
	call	_ZNSaI7TwoCharED1Ev
	movq	-1864(%rbp), %rax
	leaq	384(%rax), %r12
	leaq	-819(%rbp), %rax
	movl	$61, %edx
	movl	$33, %esi
	movq	%rax, %rdi
	call	_ZN7TwoCharC1Ecc
	leaq	-819(%rbp), %rax
	movq	%rax, -2272(%rbp)
	movq	$1, -2264(%rbp)
	leaq	-817(%rbp), %rax
	movq	%rax, %rdi
	call	_ZNSaI7TwoCharEC1Ev
	leaq	-817(%rbp), %rsi
	movq	-2272(%rbp), %rax
	movq	-2264(%rbp), %rdx
	movq	%rax, %rcx
	movq	%rdx, %rbx
	movq	%rcx, %rdi
	leaq	-848(%rbp), %rax
	movq	%rsi, %rcx
	movq	%rdi, %rsi
	movq	%rax, %rdi
.LEHB86:
	call	_ZNSt6vectorI7TwoCharSaIS0_EEC1ESt16initializer_listIS0_ERKS1_
.LEHE86:
	leaq	-848(%rbp), %rax
	movq	%rax, %rsi
	movq	%r12, %rdi
.LEHB87:
	call	_ZN14CharacterGroupC1ESt6vectorI7TwoCharSaIS1_EE
.LEHE87:
	leaq	-848(%rbp), %rax
	movq	%rax, %rdi
	call	_ZNSt6vectorI7TwoCharSaIS0_EED1Ev
	leaq	-817(%rbp), %rax
	movq	%rax, %rdi
	call	_ZNSaI7TwoCharED1Ev
	movq	-1864(%rbp), %rax
	leaq	408(%rax), %r12
	leaq	-787(%rbp), %rax
	movl	$62, %esi
	movq	%rax, %rdi
	call	_ZN7TwoCharC1Ec
	leaq	-787(%rbp), %rax
	movq	%rax, -2256(%rbp)
	movq	$1, -2248(%rbp)
	leaq	-785(%rbp), %rax
	movq	%rax, %rdi
	call	_ZNSaI7TwoCharEC1Ev
	leaq	-785(%rbp), %rsi
	movq	-2256(%rbp), %rax
	movq	-2248(%rbp), %rdx
	movq	%rax, %rcx
	movq	%rdx, %rbx
	movq	%rcx, %rdi
	leaq	-816(%rbp), %rax
	movq	%rsi, %rcx
	movq	%rdi, %rsi
	movq	%rax, %rdi
.LEHB88:
	call	_ZNSt6vectorI7TwoCharSaIS0_EEC1ESt16initializer_listIS0_ERKS1_
.LEHE88:
	leaq	-816(%rbp), %rax
	movq	%rax, %rsi
	movq	%r12, %rdi
.LEHB89:
	call	_ZN14CharacterGroupC1ESt6vectorI7TwoCharSaIS1_EE
.LEHE89:
	leaq	-816(%rbp), %rax
	movq	%rax, %rdi
	call	_ZNSt6vectorI7TwoCharSaIS0_EED1Ev
	leaq	-785(%rbp), %rax
	movq	%rax, %rdi
	call	_ZNSaI7TwoCharED1Ev
	movq	-1864(%rbp), %rax
	leaq	432(%rax), %r12
	leaq	-755(%rbp), %rax
	movl	$60, %esi
	movq	%rax, %rdi
	call	_ZN7TwoCharC1Ec
	leaq	-755(%rbp), %rax
	movq	%rax, -2240(%rbp)
	movq	$1, -2232(%rbp)
	leaq	-753(%rbp), %rax
	movq	%rax, %rdi
	call	_ZNSaI7TwoCharEC1Ev
	leaq	-753(%rbp), %rsi
	movq	-2240(%rbp), %rax
	movq	-2232(%rbp), %rdx
	movq	%rax, %rcx
	movq	%rdx, %rbx
	movq	%rcx, %rdi
	leaq	-784(%rbp), %rax
	movq	%rsi, %rcx
	movq	%rdi, %rsi
	movq	%rax, %rdi
.LEHB90:
	call	_ZNSt6vectorI7TwoCharSaIS0_EEC1ESt16initializer_listIS0_ERKS1_
.LEHE90:
	leaq	-784(%rbp), %rax
	movq	%rax, %rsi
	movq	%r12, %rdi
.LEHB91:
	call	_ZN14CharacterGroupC1ESt6vectorI7TwoCharSaIS1_EE
.LEHE91:
	leaq	-784(%rbp), %rax
	movq	%rax, %rdi
	call	_ZNSt6vectorI7TwoCharSaIS0_EED1Ev
	leaq	-753(%rbp), %rax
	movq	%rax, %rdi
	call	_ZNSaI7TwoCharED1Ev
	movq	-1864(%rbp), %rax
	leaq	456(%rax), %r12
	leaq	-723(%rbp), %rax
	movl	$61, %edx
	movl	$62, %esi
	movq	%rax, %rdi
	call	_ZN7TwoCharC1Ecc
	leaq	-723(%rbp), %rax
	movq	%rax, -2224(%rbp)
	movq	$1, -2216(%rbp)
	leaq	-721(%rbp), %rax
	movq	%rax, %rdi
	call	_ZNSaI7TwoCharEC1Ev
	leaq	-721(%rbp), %rsi
	movq	-2224(%rbp), %rax
	movq	-2216(%rbp), %rdx
	movq	%rax, %rcx
	movq	%rdx, %rbx
	movq	%rcx, %rdi
	leaq	-752(%rbp), %rax
	movq	%rsi, %rcx
	movq	%rdi, %rsi
	movq	%rax, %rdi
.LEHB92:
	call	_ZNSt6vectorI7TwoCharSaIS0_EEC1ESt16initializer_listIS0_ERKS1_
.LEHE92:
	leaq	-752(%rbp), %rax
	movq	%rax, %rsi
	movq	%r12, %rdi
.LEHB93:
	call	_ZN14CharacterGroupC1ESt6vectorI7TwoCharSaIS1_EE
.LEHE93:
	leaq	-752(%rbp), %rax
	movq	%rax, %rdi
	call	_ZNSt6vectorI7TwoCharSaIS0_EED1Ev
	leaq	-721(%rbp), %rax
	movq	%rax, %rdi
	call	_ZNSaI7TwoCharED1Ev
	movq	-1864(%rbp), %rax
	leaq	480(%rax), %r12
	leaq	-691(%rbp), %rax
	movl	$61, %edx
	movl	$60, %esi
	movq	%rax, %rdi
	call	_ZN7TwoCharC1Ecc
	leaq	-691(%rbp), %rax
	movq	%rax, -2208(%rbp)
	movq	$1, -2200(%rbp)
	leaq	-689(%rbp), %rax
	movq	%rax, %rdi
	call	_ZNSaI7TwoCharEC1Ev
	leaq	-689(%rbp), %rsi
	movq	-2208(%rbp), %rax
	movq	-2200(%rbp), %rdx
	movq	%rax, %rcx
	movq	%rdx, %rbx
	movq	%rcx, %rdi
	leaq	-720(%rbp), %rax
	movq	%rsi, %rcx
	movq	%rdi, %rsi
	movq	%rax, %rdi
.LEHB94:
	call	_ZNSt6vectorI7TwoCharSaIS0_EEC1ESt16initializer_listIS0_ERKS1_
.LEHE94:
	leaq	-720(%rbp), %rax
	movq	%rax, %rsi
	movq	%r12, %rdi
.LEHB95:
	call	_ZN14CharacterGroupC1ESt6vectorI7TwoCharSaIS1_EE
.LEHE95:
	leaq	-720(%rbp), %rax
	movq	%rax, %rdi
	call	_ZNSt6vectorI7TwoCharSaIS0_EED1Ev
	leaq	-689(%rbp), %rax
	movq	%rax, %rdi
	call	_ZNSaI7TwoCharED1Ev
	movq	-1864(%rbp), %rax
	leaq	504(%rax), %r12
	leaq	-659(%rbp), %rax
	movl	$43, %esi
	movq	%rax, %rdi
	call	_ZN7TwoCharC1Ec
	leaq	-659(%rbp), %rax
	movq	%rax, -2192(%rbp)
	movq	$1, -2184(%rbp)
	leaq	-657(%rbp), %rax
	movq	%rax, %rdi
	call	_ZNSaI7TwoCharEC1Ev
	leaq	-657(%rbp), %rsi
	movq	-2192(%rbp), %rax
	movq	-2184(%rbp), %rdx
	movq	%rax, %rcx
	movq	%rdx, %rbx
	movq	%rcx, %rdi
	leaq	-688(%rbp), %rax
	movq	%rsi, %rcx
	movq	%rdi, %rsi
	movq	%rax, %rdi
.LEHB96:
	call	_ZNSt6vectorI7TwoCharSaIS0_EEC1ESt16initializer_listIS0_ERKS1_
.LEHE96:
	leaq	-688(%rbp), %rax
	movq	%rax, %rsi
	movq	%r12, %rdi
.LEHB97:
	call	_ZN14CharacterGroupC1ESt6vectorI7TwoCharSaIS1_EE
.LEHE97:
	leaq	-688(%rbp), %rax
	movq	%rax, %rdi
	call	_ZNSt6vectorI7TwoCharSaIS0_EED1Ev
	leaq	-657(%rbp), %rax
	movq	%rax, %rdi
	call	_ZNSaI7TwoCharED1Ev
	movq	-1864(%rbp), %rax
	leaq	528(%rax), %r12
	leaq	-627(%rbp), %rax
	movl	$45, %esi
	movq	%rax, %rdi
	call	_ZN7TwoCharC1Ec
	leaq	-627(%rbp), %rax
	movq	%rax, -2176(%rbp)
	movq	$1, -2168(%rbp)
	leaq	-625(%rbp), %rax
	movq	%rax, %rdi
	call	_ZNSaI7TwoCharEC1Ev
	leaq	-625(%rbp), %rsi
	movq	-2176(%rbp), %rax
	movq	-2168(%rbp), %rdx
	movq	%rax, %rcx
	movq	%rdx, %rbx
	movq	%rcx, %rdi
	leaq	-656(%rbp), %rax
	movq	%rsi, %rcx
	movq	%rdi, %rsi
	movq	%rax, %rdi
.LEHB98:
	call	_ZNSt6vectorI7TwoCharSaIS0_EEC1ESt16initializer_listIS0_ERKS1_
.LEHE98:
	leaq	-656(%rbp), %rax
	movq	%rax, %rsi
	movq	%r12, %rdi
.LEHB99:
	call	_ZN14CharacterGroupC1ESt6vectorI7TwoCharSaIS1_EE
.LEHE99:
	leaq	-656(%rbp), %rax
	movq	%rax, %rdi
	call	_ZNSt6vectorI7TwoCharSaIS0_EED1Ev
	leaq	-625(%rbp), %rax
	movq	%rax, %rdi
	call	_ZNSaI7TwoCharED1Ev
	movq	-1864(%rbp), %rax
	leaq	552(%rax), %r12
	leaq	-595(%rbp), %rax
	movl	$42, %esi
	movq	%rax, %rdi
	call	_ZN7TwoCharC1Ec
	leaq	-595(%rbp), %rax
	movq	%rax, -2160(%rbp)
	movq	$1, -2152(%rbp)
	leaq	-593(%rbp), %rax
	movq	%rax, %rdi
	call	_ZNSaI7TwoCharEC1Ev
	leaq	-593(%rbp), %rsi
	movq	-2160(%rbp), %rax
	movq	-2152(%rbp), %rdx
	movq	%rax, %rcx
	movq	%rdx, %rbx
	movq	%rcx, %rdi
	leaq	-624(%rbp), %rax
	movq	%rsi, %rcx
	movq	%rdi, %rsi
	movq	%rax, %rdi
.LEHB100:
	call	_ZNSt6vectorI7TwoCharSaIS0_EEC1ESt16initializer_listIS0_ERKS1_
.LEHE100:
	leaq	-624(%rbp), %rax
	movq	%rax, %rsi
	movq	%r12, %rdi
.LEHB101:
	call	_ZN14CharacterGroupC1ESt6vectorI7TwoCharSaIS1_EE
.LEHE101:
	leaq	-624(%rbp), %rax
	movq	%rax, %rdi
	call	_ZNSt6vectorI7TwoCharSaIS0_EED1Ev
	leaq	-593(%rbp), %rax
	movq	%rax, %rdi
	call	_ZNSaI7TwoCharED1Ev
	movq	-1864(%rbp), %rax
	leaq	576(%rax), %r12
	leaq	-563(%rbp), %rax
	movl	$47, %esi
	movq	%rax, %rdi
	call	_ZN7TwoCharC1Ec
	leaq	-563(%rbp), %rax
	movq	%rax, -2144(%rbp)
	movq	$1, -2136(%rbp)
	leaq	-561(%rbp), %rax
	movq	%rax, %rdi
	call	_ZNSaI7TwoCharEC1Ev
	leaq	-561(%rbp), %rsi
	movq	-2144(%rbp), %rax
	movq	-2136(%rbp), %rdx
	movq	%rax, %rcx
	movq	%rdx, %rbx
	movq	%rcx, %rdi
	leaq	-592(%rbp), %rax
	movq	%rsi, %rcx
	movq	%rdi, %rsi
	movq	%rax, %rdi
.LEHB102:
	call	_ZNSt6vectorI7TwoCharSaIS0_EEC1ESt16initializer_listIS0_ERKS1_
.LEHE102:
	leaq	-592(%rbp), %rax
	movq	%rax, %rsi
	movq	%r12, %rdi
.LEHB103:
	call	_ZN14CharacterGroupC1ESt6vectorI7TwoCharSaIS1_EE
.LEHE103:
	leaq	-592(%rbp), %rax
	movq	%rax, %rdi
	call	_ZNSt6vectorI7TwoCharSaIS0_EED1Ev
	leaq	-561(%rbp), %rax
	movq	%rax, %rdi
	call	_ZNSaI7TwoCharED1Ev
	movq	-1864(%rbp), %rax
	leaq	600(%rax), %r12
	leaq	-531(%rbp), %rax
	movl	$37, %esi
	movq	%rax, %rdi
	call	_ZN7TwoCharC1Ec
	leaq	-531(%rbp), %rax
	movq	%rax, -2128(%rbp)
	movq	$1, -2120(%rbp)
	leaq	-529(%rbp), %rax
	movq	%rax, %rdi
	call	_ZNSaI7TwoCharEC1Ev
	leaq	-529(%rbp), %rsi
	movq	-2128(%rbp), %rax
	movq	-2120(%rbp), %rdx
	movq	%rax, %rcx
	movq	%rdx, %rbx
	movq	%rcx, %rdi
	leaq	-560(%rbp), %rax
	movq	%rsi, %rcx
	movq	%rdi, %rsi
	movq	%rax, %rdi
.LEHB104:
	call	_ZNSt6vectorI7TwoCharSaIS0_EEC1ESt16initializer_listIS0_ERKS1_
.LEHE104:
	leaq	-560(%rbp), %rax
	movq	%rax, %rsi
	movq	%r12, %rdi
.LEHB105:
	call	_ZN14CharacterGroupC1ESt6vectorI7TwoCharSaIS1_EE
.LEHE105:
	leaq	-560(%rbp), %rax
	movq	%rax, %rdi
	call	_ZNSt6vectorI7TwoCharSaIS0_EED1Ev
	leaq	-529(%rbp), %rax
	movq	%rax, %rdi
	call	_ZNSaI7TwoCharED1Ev
	movq	-1864(%rbp), %rax
	leaq	624(%rax), %r12
	leaq	-499(%rbp), %rax
	movl	$61, %esi
	movq	%rax, %rdi
	call	_ZN7TwoCharC1Ec
	leaq	-499(%rbp), %rax
	movq	%rax, -2112(%rbp)
	movq	$1, -2104(%rbp)
	leaq	-497(%rbp), %rax
	movq	%rax, %rdi
	call	_ZNSaI7TwoCharEC1Ev
	leaq	-497(%rbp), %rsi
	movq	-2112(%rbp), %rax
	movq	-2104(%rbp), %rdx
	movq	%rax, %rcx
	movq	%rdx, %rbx
	movq	%rcx, %rdi
	leaq	-528(%rbp), %rax
	movq	%rsi, %rcx
	movq	%rdi, %rsi
	movq	%rax, %rdi
.LEHB106:
	call	_ZNSt6vectorI7TwoCharSaIS0_EEC1ESt16initializer_listIS0_ERKS1_
.LEHE106:
	leaq	-528(%rbp), %rax
	movq	%rax, %rsi
	movq	%r12, %rdi
.LEHB107:
	call	_ZN14CharacterGroupC1ESt6vectorI7TwoCharSaIS1_EE
.LEHE107:
	leaq	-528(%rbp), %rax
	movq	%rax, %rdi
	call	_ZNSt6vectorI7TwoCharSaIS0_EED1Ev
	leaq	-497(%rbp), %rax
	movq	%rax, %rdi
	call	_ZNSaI7TwoCharED1Ev
	movq	-1864(%rbp), %rax
	leaq	648(%rax), %r12
	leaq	-467(%rbp), %rax
	movl	$61, %edx
	movl	$43, %esi
	movq	%rax, %rdi
	call	_ZN7TwoCharC1Ecc
	leaq	-467(%rbp), %rax
	movq	%rax, -2096(%rbp)
	movq	$1, -2088(%rbp)
	leaq	-465(%rbp), %rax
	movq	%rax, %rdi
	call	_ZNSaI7TwoCharEC1Ev
	leaq	-465(%rbp), %rsi
	movq	-2096(%rbp), %rax
	movq	-2088(%rbp), %rdx
	movq	%rax, %rcx
	movq	%rdx, %rbx
	movq	%rcx, %rdi
	leaq	-496(%rbp), %rax
	movq	%rsi, %rcx
	movq	%rdi, %rsi
	movq	%rax, %rdi
.LEHB108:
	call	_ZNSt6vectorI7TwoCharSaIS0_EEC1ESt16initializer_listIS0_ERKS1_
.LEHE108:
	leaq	-496(%rbp), %rax
	movq	%rax, %rsi
	movq	%r12, %rdi
.LEHB109:
	call	_ZN14CharacterGroupC1ESt6vectorI7TwoCharSaIS1_EE
.LEHE109:
	leaq	-496(%rbp), %rax
	movq	%rax, %rdi
	call	_ZNSt6vectorI7TwoCharSaIS0_EED1Ev
	leaq	-465(%rbp), %rax
	movq	%rax, %rdi
	call	_ZNSaI7TwoCharED1Ev
	movq	-1864(%rbp), %rax
	leaq	672(%rax), %r12
	leaq	-435(%rbp), %rax
	movl	$61, %edx
	movl	$45, %esi
	movq	%rax, %rdi
	call	_ZN7TwoCharC1Ecc
	leaq	-435(%rbp), %rax
	movq	%rax, -2080(%rbp)
	movq	$1, -2072(%rbp)
	leaq	-433(%rbp), %rax
	movq	%rax, %rdi
	call	_ZNSaI7TwoCharEC1Ev
	leaq	-433(%rbp), %rsi
	movq	-2080(%rbp), %rax
	movq	-2072(%rbp), %rdx
	movq	%rax, %rcx
	movq	%rdx, %rbx
	movq	%rcx, %rdi
	leaq	-464(%rbp), %rax
	movq	%rsi, %rcx
	movq	%rdi, %rsi
	movq	%rax, %rdi
.LEHB110:
	call	_ZNSt6vectorI7TwoCharSaIS0_EEC1ESt16initializer_listIS0_ERKS1_
.LEHE110:
	leaq	-464(%rbp), %rax
	movq	%rax, %rsi
	movq	%r12, %rdi
.LEHB111:
	call	_ZN14CharacterGroupC1ESt6vectorI7TwoCharSaIS1_EE
.LEHE111:
	leaq	-464(%rbp), %rax
	movq	%rax, %rdi
	call	_ZNSt6vectorI7TwoCharSaIS0_EED1Ev
	leaq	-433(%rbp), %rax
	movq	%rax, %rdi
	call	_ZNSaI7TwoCharED1Ev
	movq	-1864(%rbp), %rax
	leaq	696(%rax), %r12
	leaq	-403(%rbp), %rax
	movl	$61, %edx
	movl	$42, %esi
	movq	%rax, %rdi
	call	_ZN7TwoCharC1Ecc
	leaq	-403(%rbp), %rax
	movq	%rax, -2064(%rbp)
	movq	$1, -2056(%rbp)
	leaq	-401(%rbp), %rax
	movq	%rax, %rdi
	call	_ZNSaI7TwoCharEC1Ev
	leaq	-401(%rbp), %rsi
	movq	-2064(%rbp), %rax
	movq	-2056(%rbp), %rdx
	movq	%rax, %rcx
	movq	%rdx, %rbx
	movq	%rcx, %rdi
	leaq	-432(%rbp), %rax
	movq	%rsi, %rcx
	movq	%rdi, %rsi
	movq	%rax, %rdi
.LEHB112:
	call	_ZNSt6vectorI7TwoCharSaIS0_EEC1ESt16initializer_listIS0_ERKS1_
.LEHE112:
	leaq	-432(%rbp), %rax
	movq	%rax, %rsi
	movq	%r12, %rdi
.LEHB113:
	call	_ZN14CharacterGroupC1ESt6vectorI7TwoCharSaIS1_EE
.LEHE113:
	leaq	-432(%rbp), %rax
	movq	%rax, %rdi
	call	_ZNSt6vectorI7TwoCharSaIS0_EED1Ev
	leaq	-401(%rbp), %rax
	movq	%rax, %rdi
	call	_ZNSaI7TwoCharED1Ev
	movq	-1864(%rbp), %rax
	leaq	720(%rax), %r12
	leaq	-371(%rbp), %rax
	movl	$61, %edx
	movl	$47, %esi
	movq	%rax, %rdi
	call	_ZN7TwoCharC1Ecc
	leaq	-371(%rbp), %rax
	movq	%rax, -2048(%rbp)
	movq	$1, -2040(%rbp)
	leaq	-369(%rbp), %rax
	movq	%rax, %rdi
	call	_ZNSaI7TwoCharEC1Ev
	leaq	-369(%rbp), %rsi
	movq	-2048(%rbp), %rax
	movq	-2040(%rbp), %rdx
	movq	%rax, %rcx
	movq	%rdx, %rbx
	movq	%rcx, %rdi
	leaq	-400(%rbp), %rax
	movq	%rsi, %rcx
	movq	%rdi, %rsi
	movq	%rax, %rdi
.LEHB114:
	call	_ZNSt6vectorI7TwoCharSaIS0_EEC1ESt16initializer_listIS0_ERKS1_
.LEHE114:
	leaq	-400(%rbp), %rax
	movq	%rax, %rsi
	movq	%r12, %rdi
.LEHB115:
	call	_ZN14CharacterGroupC1ESt6vectorI7TwoCharSaIS1_EE
.LEHE115:
	leaq	-400(%rbp), %rax
	movq	%rax, %rdi
	call	_ZNSt6vectorI7TwoCharSaIS0_EED1Ev
	leaq	-369(%rbp), %rax
	movq	%rax, %rdi
	call	_ZNSaI7TwoCharED1Ev
	movq	-1864(%rbp), %rax
	leaq	744(%rax), %r12
	leaq	-339(%rbp), %rax
	movl	$61, %edx
	movl	$37, %esi
	movq	%rax, %rdi
	call	_ZN7TwoCharC1Ecc
	leaq	-339(%rbp), %rax
	movq	%rax, -2032(%rbp)
	movq	$1, -2024(%rbp)
	leaq	-337(%rbp), %rax
	movq	%rax, %rdi
	call	_ZNSaI7TwoCharEC1Ev
	leaq	-337(%rbp), %rsi
	movq	-2032(%rbp), %rax
	movq	-2024(%rbp), %rdx
	movq	%rax, %rcx
	movq	%rdx, %rbx
	movq	%rcx, %rdi
	leaq	-368(%rbp), %rax
	movq	%rsi, %rcx
	movq	%rdi, %rsi
	movq	%rax, %rdi
.LEHB116:
	call	_ZNSt6vectorI7TwoCharSaIS0_EEC1ESt16initializer_listIS0_ERKS1_
.LEHE116:
	leaq	-368(%rbp), %rax
	movq	%rax, %rsi
	movq	%r12, %rdi
.LEHB117:
	call	_ZN14CharacterGroupC1ESt6vectorI7TwoCharSaIS1_EE
.LEHE117:
	leaq	-368(%rbp), %rax
	movq	%rax, %rdi
	call	_ZNSt6vectorI7TwoCharSaIS0_EED1Ev
	leaq	-337(%rbp), %rax
	movq	%rax, %rdi
	call	_ZNSaI7TwoCharED1Ev
	movq	-1864(%rbp), %rax
	leaq	768(%rax), %r12
	leaq	-307(%rbp), %rax
	movl	$43, %edx
	movl	$43, %esi
	movq	%rax, %rdi
	call	_ZN7TwoCharC1Ecc
	leaq	-307(%rbp), %rax
	movq	%rax, -2016(%rbp)
	movq	$1, -2008(%rbp)
	leaq	-305(%rbp), %rax
	movq	%rax, %rdi
	call	_ZNSaI7TwoCharEC1Ev
	leaq	-305(%rbp), %rsi
	movq	-2016(%rbp), %rax
	movq	-2008(%rbp), %rdx
	movq	%rax, %rcx
	movq	%rdx, %rbx
	movq	%rcx, %rdi
	leaq	-336(%rbp), %rax
	movq	%rsi, %rcx
	movq	%rdi, %rsi
	movq	%rax, %rdi
.LEHB118:
	call	_ZNSt6vectorI7TwoCharSaIS0_EEC1ESt16initializer_listIS0_ERKS1_
.LEHE118:
	leaq	-336(%rbp), %rax
	movq	%rax, %rsi
	movq	%r12, %rdi
.LEHB119:
	call	_ZN14CharacterGroupC1ESt6vectorI7TwoCharSaIS1_EE
.LEHE119:
	leaq	-336(%rbp), %rax
	movq	%rax, %rdi
	call	_ZNSt6vectorI7TwoCharSaIS0_EED1Ev
	leaq	-305(%rbp), %rax
	movq	%rax, %rdi
	call	_ZNSaI7TwoCharED1Ev
	movq	-1864(%rbp), %rax
	leaq	792(%rax), %r12
	leaq	-275(%rbp), %rax
	movl	$45, %edx
	movl	$45, %esi
	movq	%rax, %rdi
	call	_ZN7TwoCharC1Ecc
	leaq	-275(%rbp), %rax
	movq	%rax, -2000(%rbp)
	movq	$1, -1992(%rbp)
	leaq	-273(%rbp), %rax
	movq	%rax, %rdi
	call	_ZNSaI7TwoCharEC1Ev
	leaq	-273(%rbp), %rsi
	movq	-2000(%rbp), %rax
	movq	-1992(%rbp), %rdx
	movq	%rax, %rcx
	movq	%rdx, %rbx
	movq	%rcx, %rdi
	leaq	-304(%rbp), %rax
	movq	%rsi, %rcx
	movq	%rdi, %rsi
	movq	%rax, %rdi
.LEHB120:
	call	_ZNSt6vectorI7TwoCharSaIS0_EEC1ESt16initializer_listIS0_ERKS1_
.LEHE120:
	leaq	-304(%rbp), %rax
	movq	%rax, %rsi
	movq	%r12, %rdi
.LEHB121:
	call	_ZN14CharacterGroupC1ESt6vectorI7TwoCharSaIS1_EE
.LEHE121:
	leaq	-304(%rbp), %rax
	movq	%rax, %rdi
	call	_ZNSt6vectorI7TwoCharSaIS0_EED1Ev
	leaq	-273(%rbp), %rax
	movq	%rax, %rdi
	call	_ZNSaI7TwoCharED1Ev
	movq	-1864(%rbp), %rax
	leaq	816(%rax), %r12
	leaq	-243(%rbp), %rax
	movl	$45, %esi
	movq	%rax, %rdi
	call	_ZN7TwoCharC1Ec
	leaq	-243(%rbp), %rax
	movq	%rax, -1984(%rbp)
	movq	$1, -1976(%rbp)
	leaq	-241(%rbp), %rax
	movq	%rax, %rdi
	call	_ZNSaI7TwoCharEC1Ev
	leaq	-241(%rbp), %rsi
	movq	-1984(%rbp), %rax
	movq	-1976(%rbp), %rdx
	movq	%rax, %rcx
	movq	%rdx, %rbx
	movq	%rcx, %rdi
	leaq	-272(%rbp), %rax
	movq	%rsi, %rcx
	movq	%rdi, %rsi
	movq	%rax, %rdi
.LEHB122:
	call	_ZNSt6vectorI7TwoCharSaIS0_EEC1ESt16initializer_listIS0_ERKS1_
.LEHE122:
	leaq	-272(%rbp), %rax
	movq	%rax, %rsi
	movq	%r12, %rdi
.LEHB123:
	call	_ZN14CharacterGroupC1ESt6vectorI7TwoCharSaIS1_EE
.LEHE123:
	leaq	-272(%rbp), %rax
	movq	%rax, %rdi
	call	_ZNSt6vectorI7TwoCharSaIS0_EED1Ev
	leaq	-241(%rbp), %rax
	movq	%rax, %rdi
	call	_ZNSaI7TwoCharED1Ev
	movq	-1864(%rbp), %rax
	leaq	840(%rax), %r12
	leaq	-211(%rbp), %rax
	movl	$33, %esi
	movq	%rax, %rdi
	call	_ZN7TwoCharC1Ec
	leaq	-211(%rbp), %rax
	movq	%rax, -1968(%rbp)
	movq	$1, -1960(%rbp)
	leaq	-209(%rbp), %rax
	movq	%rax, %rdi
	call	_ZNSaI7TwoCharEC1Ev
	leaq	-209(%rbp), %rsi
	movq	-1968(%rbp), %rax
	movq	-1960(%rbp), %rdx
	movq	%rax, %rcx
	movq	%rdx, %rbx
	movq	%rcx, %rdi
	leaq	-240(%rbp), %rax
	movq	%rsi, %rcx
	movq	%rdi, %rsi
	movq	%rax, %rdi
.LEHB124:
	call	_ZNSt6vectorI7TwoCharSaIS0_EEC1ESt16initializer_listIS0_ERKS1_
.LEHE124:
	leaq	-240(%rbp), %rax
	movq	%rax, %rsi
	movq	%r12, %rdi
.LEHB125:
	call	_ZN14CharacterGroupC1ESt6vectorI7TwoCharSaIS1_EE
.LEHE125:
	leaq	-240(%rbp), %rax
	movq	%rax, %rdi
	call	_ZNSt6vectorI7TwoCharSaIS0_EED1Ev
	leaq	-209(%rbp), %rax
	movq	%rax, %rdi
	call	_ZNSaI7TwoCharED1Ev
	movq	-1864(%rbp), %rax
	leaq	864(%rax), %rbx
	leaq	-179(%rbp), %rax
	movl	$38, %edx
	movl	$38, %esi
	movq	%rax, %rdi
	call	_ZN7TwoCharC1Ecc
	leaq	-179(%rbp), %rax
	movq	%rax, -1952(%rbp)
	movq	$1, -1944(%rbp)
	leaq	-177(%rbp), %rax
	movq	%rax, %rdi
	call	_ZNSaI7TwoCharEC1Ev
	leaq	-177(%rbp), %rdx
	movq	-1952(%rbp), %rsi
	movq	-1944(%rbp), %rdi
	movq	%rsi, %r8
	movq	%rdi, %r9
	leaq	-208(%rbp), %rax
	movq	%rdx, %rcx
	movq	%r8, %rsi
	movq	%rdi, %rdx
	movq	%rax, %rdi
.LEHB126:
	call	_ZNSt6vectorI7TwoCharSaIS0_EEC1ESt16initializer_listIS0_ERKS1_
.LEHE126:
	leaq	-208(%rbp), %rax
	movq	%rax, %rsi
	movq	%rbx, %rdi
.LEHB127:
	call	_ZN14CharacterGroupC1ESt6vectorI7TwoCharSaIS1_EE
.LEHE127:
	leaq	-208(%rbp), %rax
	movq	%rax, %rdi
	call	_ZNSt6vectorI7TwoCharSaIS0_EED1Ev
	leaq	-177(%rbp), %rax
	movq	%rax, %rdi
	call	_ZNSaI7TwoCharED1Ev
	movq	-1864(%rbp), %rax
	leaq	888(%rax), %rbx
	leaq	-147(%rbp), %rax
	movl	$124, %edx
	movl	$124, %esi
	movq	%rax, %rdi
	call	_ZN7TwoCharC1Ecc
	leaq	-147(%rbp), %rax
	movq	%rax, -1936(%rbp)
	movq	$1, -1928(%rbp)
	leaq	-145(%rbp), %rax
	movq	%rax, %rdi
	call	_ZNSaI7TwoCharEC1Ev
	leaq	-145(%rbp), %rdx
	movq	-1936(%rbp), %rsi
	movq	-1928(%rbp), %rdi
	movq	%rsi, %r8
	movq	%rdi, %r9
	leaq	-176(%rbp), %rax
	movq	%rdx, %rcx
	movq	%r8, %rsi
	movq	%rdi, %rdx
	movq	%rax, %rdi
.LEHB128:
	call	_ZNSt6vectorI7TwoCharSaIS0_EEC1ESt16initializer_listIS0_ERKS1_
.LEHE128:
	leaq	-176(%rbp), %rax
	movq	%rax, %rsi
	movq	%rbx, %rdi
.LEHB129:
	call	_ZN14CharacterGroupC1ESt6vectorI7TwoCharSaIS1_EE
.LEHE129:
	leaq	-176(%rbp), %rax
	movq	%rax, %rdi
	call	_ZNSt6vectorI7TwoCharSaIS0_EED1Ev
	leaq	-145(%rbp), %rax
	movq	%rax, %rdi
	call	_ZNSaI7TwoCharED1Ev
	movq	-1864(%rbp), %rax
	leaq	912(%rax), %rbx
	leaq	-115(%rbp), %rax
	movl	$47, %edx
	movl	$47, %esi
	movq	%rax, %rdi
	call	_ZN7TwoCharC1Ecc
	leaq	-115(%rbp), %rax
	movq	%rax, -1920(%rbp)
	movq	$1, -1912(%rbp)
	leaq	-113(%rbp), %rax
	movq	%rax, %rdi
	call	_ZNSaI7TwoCharEC1Ev
	leaq	-113(%rbp), %rdx
	movq	-1920(%rbp), %rsi
	movq	-1912(%rbp), %rdi
	movq	%rsi, %r8
	movq	%rdi, %r9
	leaq	-144(%rbp), %rax
	movq	%rdx, %rcx
	movq	%r8, %rsi
	movq	%rdi, %rdx
	movq	%rax, %rdi
.LEHB130:
	call	_ZNSt6vectorI7TwoCharSaIS0_EEC1ESt16initializer_listIS0_ERKS1_
.LEHE130:
	leaq	-144(%rbp), %rax
	movq	%rax, %rsi
	movq	%rbx, %rdi
.LEHB131:
	call	_ZN14CharacterGroupC1ESt6vectorI7TwoCharSaIS1_EE
.LEHE131:
	leaq	-144(%rbp), %rax
	movq	%rax, %rdi
	call	_ZNSt6vectorI7TwoCharSaIS0_EED1Ev
	leaq	-113(%rbp), %rax
	movq	%rax, %rdi
	call	_ZNSaI7TwoCharED1Ev
	movq	-1864(%rbp), %rax
	leaq	936(%rax), %rbx
	leaq	-83(%rbp), %rax
	movl	$42, %edx
	movl	$47, %esi
	movq	%rax, %rdi
	call	_ZN7TwoCharC1Ecc
	leaq	-83(%rbp), %rax
	movq	%rax, -1904(%rbp)
	movq	$1, -1896(%rbp)
	leaq	-81(%rbp), %rax
	movq	%rax, %rdi
	call	_ZNSaI7TwoCharEC1Ev
	leaq	-81(%rbp), %rdx
	movq	-1904(%rbp), %rsi
	movq	-1896(%rbp), %rdi
	movq	%rsi, %r8
	movq	%rdi, %r9
	leaq	-112(%rbp), %rax
	movq	%rdx, %rcx
	movq	%r8, %rsi
	movq	%rdi, %rdx
	movq	%rax, %rdi
.LEHB132:
	call	_ZNSt6vectorI7TwoCharSaIS0_EEC1ESt16initializer_listIS0_ERKS1_
.LEHE132:
	leaq	-112(%rbp), %rax
	movq	%rax, %rsi
	movq	%rbx, %rdi
.LEHB133:
	call	_ZN14CharacterGroupC1ESt6vectorI7TwoCharSaIS1_EE
.LEHE133:
	leaq	-112(%rbp), %rax
	movq	%rax, %rdi
	call	_ZNSt6vectorI7TwoCharSaIS0_EED1Ev
	leaq	-81(%rbp), %rax
	movq	%rax, %rdi
	call	_ZNSaI7TwoCharED1Ev
	movq	-1864(%rbp), %rax
	leaq	960(%rax), %rbx
	leaq	-51(%rbp), %rax
	movl	$47, %edx
	movl	$42, %esi
	movq	%rax, %rdi
	call	_ZN7TwoCharC1Ecc
	leaq	-51(%rbp), %rax
	movq	%rax, -1888(%rbp)
	movq	$1, -1880(%rbp)
	leaq	-49(%rbp), %rax
	movq	%rax, %rdi
	call	_ZNSaI7TwoCharEC1Ev
	leaq	-49(%rbp), %rdx
	movq	-1888(%rbp), %rsi
	movq	-1880(%rbp), %rdi
	movq	%rsi, %r8
	movq	%rdi, %r9
	leaq	-80(%rbp), %rax
	movq	%rdx, %rcx
	movq	%r8, %rsi
	movq	%rdi, %rdx
	movq	%rax, %rdi
.LEHB134:
	call	_ZNSt6vectorI7TwoCharSaIS0_EEC1ESt16initializer_listIS0_ERKS1_
.LEHE134:
	leaq	-80(%rbp), %rax
	movq	%rax, %rsi
	movq	%rbx, %rdi
.LEHB135:
	call	_ZN14CharacterGroupC1ESt6vectorI7TwoCharSaIS1_EE
.LEHE135:
	leaq	-80(%rbp), %rax
	movq	%rax, %rdi
	call	_ZNSt6vectorI7TwoCharSaIS0_EED1Ev
	leaq	-49(%rbp), %rax
	movq	%rax, %rdi
	call	_ZNSaI7TwoCharED1Ev
	jmp	.L443
.L356:
	movq	%rax, %rbx
	leaq	-1856(%rbp), %rax
	movq	%rax, %rdi
	call	_ZNSt6vectorI7TwoCharSaIS0_EED1Ev
	jmp	.L213
.L355:
	movq	%rax, %rbx
.L213:
	leaq	-1809(%rbp), %rax
	movq	%rax, %rdi
	call	_ZNSaI7TwoCharED1Ev
	movq	%rbx, %rax
	movq	%rax, %rdi
.LEHB136:
	call	_Unwind_Resume@PLT
.L358:
	movq	%rax, %rbx
	leaq	-1808(%rbp), %rax
	movq	%rax, %rdi
	call	_ZNSt6vectorI7TwoCharSaIS0_EED1Ev
	jmp	.L215
.L357:
	movq	%rax, %rbx
.L215:
	leaq	-1777(%rbp), %rax
	movq	%rax, %rdi
	call	_ZNSaI7TwoCharED1Ev
	jmp	.L216
.L360:
	movq	%rax, %rbx
	leaq	-1776(%rbp), %rax
	movq	%rax, %rdi
	call	_ZNSt6vectorI7TwoCharSaIS0_EED1Ev
	jmp	.L218
.L359:
	movq	%rax, %rbx
.L218:
	leaq	-1681(%rbp), %rax
	movq	%rax, %rdi
	call	_ZNSaI7TwoCharED1Ev
	jmp	.L219
.L362:
	movq	%rax, %rbx
	leaq	-1680(%rbp), %rax
	movq	%rax, %rdi
	call	_ZNSt6vectorI7TwoCharSaIS0_EED1Ev
	jmp	.L221
.L361:
	movq	%rax, %rbx
.L221:
	leaq	-1585(%rbp), %rax
	movq	%rax, %rdi
	call	_ZNSaI7TwoCharED1Ev
	jmp	.L222
.L365:
	movq	%rax, %rbx
	leaq	-1488(%rbp), %rax
	movq	%rax, %rdi
	call	_ZNSt6vectorI7TwoCharSaIS0_EED1Ev
	leaq	-1584(%rbp), %rax
	movq	%rax, %rdi
	call	_ZNSt6vectorI14CharacterGroupSaIS0_EED1Ev
	jmp	.L224
.L364:
	movq	%rax, %rbx
.L224:
	leaq	-1489(%rbp), %rax
	movq	%rax, %rdi
	call	_ZNSaI14CharacterGroupED1Ev
	movq	%rbx, %r12
	leaq	-1552(%rbp), %rbx
	addq	$48, %rbx
.L226:
	leaq	-1552(%rbp), %rax
	cmpq	%rax, %rbx
	je	.L227
	subq	$24, %rbx
	movq	%rbx, %rdi
	call	_ZN14CharacterGroupD1Ev
	jmp	.L226
.L363:
	movq	%rax, %r12
.L227:
	testq	%r13, %r13
	je	.L228
	movl	$1, %eax
	subq	%r14, %rax
	movq	%rax, %rdx
	movq	%rdx, %rax
	addq	%rax, %rax
	addq	%rdx, %rax
	salq	$3, %rax
	leaq	0(%r13,%rax), %rbx
.L229:
	cmpq	%r13, %rbx
	je	.L228
	subq	$24, %rbx
	movq	%rbx, %rdi
	call	_ZN14CharacterGroupD1Ev
	jmp	.L229
.L228:
	movq	%r12, %rbx
	jmp	.L230
.L367:
	movq	%rax, %rbx
	leaq	-1456(%rbp), %rax
	movq	%rax, %rdi
	call	_ZNSt6vectorI7TwoCharSaIS0_EED1Ev
	jmp	.L232
.L366:
	movq	%rax, %rbx
.L232:
	leaq	-1393(%rbp), %rax
	movq	%rax, %rdi
	call	_ZNSaI7TwoCharED1Ev
	jmp	.L233
.L370:
	movq	%rax, %rbx
	leaq	-1392(%rbp), %rax
	movq	%rax, %rdi
	call	_ZNSt6vectorI14CharacterGroupSaIS0_EED1Ev
	jmp	.L235
.L369:
	movq	%rax, %rbx
.L235:
	leaq	-1297(%rbp), %rax
	movq	%rax, %rdi
	call	_ZNSaI14CharacterGroupED1Ev
	movq	%rbx, %r12
	leaq	-1360(%rbp), %rbx
	addq	$48, %rbx
.L237:
	leaq	-1360(%rbp), %rax
	cmpq	%rax, %rbx
	je	.L238
	subq	$24, %rbx
	movq	%rbx, %rdi
	call	_ZN14CharacterGroupD1Ev
	jmp	.L237
.L368:
	movq	%rax, %r12
.L238:
	testq	%r13, %r13
	je	.L239
	movl	$1, %eax
	subq	%r14, %rax
	movq	%rax, %rdx
	movq	%rdx, %rax
	addq	%rax, %rax
	addq	%rdx, %rax
	salq	$3, %rax
	leaq	0(%r13,%rax), %rbx
.L240:
	cmpq	%r13, %rbx
	je	.L239
	subq	$24, %rbx
	movq	%rbx, %rdi
	call	_ZN14CharacterGroupD1Ev
	jmp	.L240
.L239:
	movq	%r12, %rbx
	jmp	.L241
.L372:
	movq	%rax, %rbx
	leaq	-1296(%rbp), %rax
	movq	%rax, %rdi
	call	_ZNSt6vectorI7TwoCharSaIS0_EED1Ev
	jmp	.L243
.L371:
	movq	%rax, %rbx
.L243:
	leaq	-1265(%rbp), %rax
	movq	%rax, %rdi
	call	_ZNSaI7TwoCharED1Ev
	jmp	.L244
.L376:
	movq	%rax, %rbx
	leaq	-1200(%rbp), %rax
	movq	%rax, %rdi
	call	_ZNSt6vectorI7TwoCharSaIS0_EED1Ev
	jmp	.L246
.L375:
	movq	%rax, %rbx
.L246:
	leaq	-1169(%rbp), %rax
	movq	%rax, %rdi
	call	_ZNSaI7TwoCharED1Ev
	leaq	-1264(%rbp), %rax
	movq	%rax, %rdi
	call	_ZNSt6vectorI14CharacterGroupSaIS0_EED1Ev
	jmp	.L247
.L374:
	movq	%rax, %rbx
.L247:
	leaq	-1201(%rbp), %rax
	movq	%rax, %rdi
	call	_ZNSaI14CharacterGroupED1Ev
	movq	%rbx, %r12
	leaq	-1232(%rbp), %rbx
	addq	$24, %rbx
.L249:
	leaq	-1232(%rbp), %rax
	cmpq	%rax, %rbx
	je	.L250
	subq	$24, %rbx
	movq	%rbx, %rdi
	call	_ZN14CharacterGroupD1Ev
	jmp	.L249
.L373:
	movq	%rax, %r12
.L250:
	testq	%r13, %r13
	je	.L251
	movq	%r14, %rdx
	movq	%rdx, %rax
	salq	$2, %rdx
	subq	%rdx, %rax
	salq	$3, %rax
	leaq	0(%r13,%rax), %rbx
.L252:
	cmpq	%r13, %rbx
	je	.L251
	subq	$24, %rbx
	movq	%rbx, %rdi
	call	_ZN14CharacterGroupD1Ev
	jmp	.L252
.L251:
	movq	%r12, %rbx
	jmp	.L253
.L380:
	movq	%rax, %rbx
	leaq	-1072(%rbp), %rax
	movq	%rax, %rdi
	call	_ZNSt6vectorI7TwoCharSaIS0_EED1Ev
	jmp	.L255
.L379:
	movq	%rax, %rbx
.L255:
	leaq	-1041(%rbp), %rax
	movq	%rax, %rdi
	call	_ZNSaI7TwoCharED1Ev
	leaq	-1168(%rbp), %rax
	movq	%rax, %rdi
	call	_ZNSt6vectorI14CharacterGroupSaIS0_EED1Ev
	jmp	.L256
.L378:
	movq	%rax, %rbx
.L256:
	leaq	-1073(%rbp), %rax
	movq	%rax, %rdi
	call	_ZNSaI14CharacterGroupED1Ev
	movq	%rbx, %r12
	leaq	-1136(%rbp), %rbx
	addq	$48, %rbx
.L258:
	leaq	-1136(%rbp), %rax
	cmpq	%rax, %rbx
	je	.L259
	subq	$24, %rbx
	movq	%rbx, %rdi
	call	_ZN14CharacterGroupD1Ev
	jmp	.L258
.L377:
	movq	%rax, %r12
.L259:
	testq	%r13, %r13
	je	.L260
	movl	$1, %eax
	subq	%r14, %rax
	movq	%rax, %rdx
	movq	%rdx, %rax
	addq	%rax, %rax
	addq	%rdx, %rax
	salq	$3, %rax
	leaq	0(%r13,%rax), %rbx
.L261:
	cmpq	%r13, %rbx
	je	.L260
	subq	$24, %rbx
	movq	%rbx, %rdi
	call	_ZN14CharacterGroupD1Ev
	jmp	.L261
.L260:
	movq	%r12, %rbx
	jmp	.L262
.L382:
	movq	%rax, %rbx
	leaq	-1040(%rbp), %rax
	movq	%rax, %rdi
	call	_ZNSt6vectorI7TwoCharSaIS0_EED1Ev
	jmp	.L264
.L381:
	movq	%rax, %rbx
.L264:
	leaq	-1009(%rbp), %rax
	movq	%rax, %rdi
	call	_ZNSaI7TwoCharED1Ev
	jmp	.L265
.L384:
	movq	%rax, %rbx
	leaq	-1008(%rbp), %rax
	movq	%rax, %rdi
	call	_ZNSt6vectorI7TwoCharSaIS0_EED1Ev
	jmp	.L267
.L383:
	movq	%rax, %rbx
.L267:
	leaq	-977(%rbp), %rax
	movq	%rax, %rdi
	call	_ZNSaI7TwoCharED1Ev
	jmp	.L268
.L386:
	movq	%rax, %rbx
	leaq	-976(%rbp), %rax
	movq	%rax, %rdi
	call	_ZNSt6vectorI7TwoCharSaIS0_EED1Ev
	jmp	.L270
.L385:
	movq	%rax, %rbx
.L270:
	leaq	-945(%rbp), %rax
	movq	%rax, %rdi
	call	_ZNSaI7TwoCharED1Ev
	jmp	.L271
.L388:
	movq	%rax, %rbx
	leaq	-944(%rbp), %rax
	movq	%rax, %rdi
	call	_ZNSt6vectorI7TwoCharSaIS0_EED1Ev
	jmp	.L273
.L387:
	movq	%rax, %rbx
.L273:
	leaq	-913(%rbp), %rax
	movq	%rax, %rdi
	call	_ZNSaI7TwoCharED1Ev
	jmp	.L274
.L390:
	movq	%rax, %rbx
	leaq	-912(%rbp), %rax
	movq	%rax, %rdi
	call	_ZNSt6vectorI7TwoCharSaIS0_EED1Ev
	jmp	.L276
.L389:
	movq	%rax, %rbx
.L276:
	leaq	-881(%rbp), %rax
	movq	%rax, %rdi
	call	_ZNSaI7TwoCharED1Ev
	jmp	.L277
.L392:
	movq	%rax, %rbx
	leaq	-880(%rbp), %rax
	movq	%rax, %rdi
	call	_ZNSt6vectorI7TwoCharSaIS0_EED1Ev
	jmp	.L279
.L391:
	movq	%rax, %rbx
.L279:
	leaq	-849(%rbp), %rax
	movq	%rax, %rdi
	call	_ZNSaI7TwoCharED1Ev
	jmp	.L280
.L394:
	movq	%rax, %rbx
	leaq	-848(%rbp), %rax
	movq	%rax, %rdi
	call	_ZNSt6vectorI7TwoCharSaIS0_EED1Ev
	jmp	.L282
.L393:
	movq	%rax, %rbx
.L282:
	leaq	-817(%rbp), %rax
	movq	%rax, %rdi
	call	_ZNSaI7TwoCharED1Ev
	jmp	.L283
.L396:
	movq	%rax, %rbx
	leaq	-816(%rbp), %rax
	movq	%rax, %rdi
	call	_ZNSt6vectorI7TwoCharSaIS0_EED1Ev
	jmp	.L285
.L395:
	movq	%rax, %rbx
.L285:
	leaq	-785(%rbp), %rax
	movq	%rax, %rdi
	call	_ZNSaI7TwoCharED1Ev
	jmp	.L286
.L398:
	movq	%rax, %rbx
	leaq	-784(%rbp), %rax
	movq	%rax, %rdi
	call	_ZNSt6vectorI7TwoCharSaIS0_EED1Ev
	jmp	.L288
.L397:
	movq	%rax, %rbx
.L288:
	leaq	-753(%rbp), %rax
	movq	%rax, %rdi
	call	_ZNSaI7TwoCharED1Ev
	jmp	.L289
.L400:
	movq	%rax, %rbx
	leaq	-752(%rbp), %rax
	movq	%rax, %rdi
	call	_ZNSt6vectorI7TwoCharSaIS0_EED1Ev
	jmp	.L291
.L399:
	movq	%rax, %rbx
.L291:
	leaq	-721(%rbp), %rax
	movq	%rax, %rdi
	call	_ZNSaI7TwoCharED1Ev
	jmp	.L292
.L402:
	movq	%rax, %rbx
	leaq	-720(%rbp), %rax
	movq	%rax, %rdi
	call	_ZNSt6vectorI7TwoCharSaIS0_EED1Ev
	jmp	.L294
.L401:
	movq	%rax, %rbx
.L294:
	leaq	-689(%rbp), %rax
	movq	%rax, %rdi
	call	_ZNSaI7TwoCharED1Ev
	jmp	.L295
.L404:
	movq	%rax, %rbx
	leaq	-688(%rbp), %rax
	movq	%rax, %rdi
	call	_ZNSt6vectorI7TwoCharSaIS0_EED1Ev
	jmp	.L297
.L403:
	movq	%rax, %rbx
.L297:
	leaq	-657(%rbp), %rax
	movq	%rax, %rdi
	call	_ZNSaI7TwoCharED1Ev
	jmp	.L298
.L406:
	movq	%rax, %rbx
	leaq	-656(%rbp), %rax
	movq	%rax, %rdi
	call	_ZNSt6vectorI7TwoCharSaIS0_EED1Ev
	jmp	.L300
.L405:
	movq	%rax, %rbx
.L300:
	leaq	-625(%rbp), %rax
	movq	%rax, %rdi
	call	_ZNSaI7TwoCharED1Ev
	jmp	.L301
.L408:
	movq	%rax, %rbx
	leaq	-624(%rbp), %rax
	movq	%rax, %rdi
	call	_ZNSt6vectorI7TwoCharSaIS0_EED1Ev
	jmp	.L303
.L407:
	movq	%rax, %rbx
.L303:
	leaq	-593(%rbp), %rax
	movq	%rax, %rdi
	call	_ZNSaI7TwoCharED1Ev
	jmp	.L304
.L410:
	movq	%rax, %rbx
	leaq	-592(%rbp), %rax
	movq	%rax, %rdi
	call	_ZNSt6vectorI7TwoCharSaIS0_EED1Ev
	jmp	.L306
.L409:
	movq	%rax, %rbx
.L306:
	leaq	-561(%rbp), %rax
	movq	%rax, %rdi
	call	_ZNSaI7TwoCharED1Ev
	jmp	.L307
.L412:
	movq	%rax, %rbx
	leaq	-560(%rbp), %rax
	movq	%rax, %rdi
	call	_ZNSt6vectorI7TwoCharSaIS0_EED1Ev
	jmp	.L309
.L411:
	movq	%rax, %rbx
.L309:
	leaq	-529(%rbp), %rax
	movq	%rax, %rdi
	call	_ZNSaI7TwoCharED1Ev
	jmp	.L310
.L414:
	movq	%rax, %rbx
	leaq	-528(%rbp), %rax
	movq	%rax, %rdi
	call	_ZNSt6vectorI7TwoCharSaIS0_EED1Ev
	jmp	.L312
.L413:
	movq	%rax, %rbx
.L312:
	leaq	-497(%rbp), %rax
	movq	%rax, %rdi
	call	_ZNSaI7TwoCharED1Ev
	jmp	.L313
.L416:
	movq	%rax, %rbx
	leaq	-496(%rbp), %rax
	movq	%rax, %rdi
	call	_ZNSt6vectorI7TwoCharSaIS0_EED1Ev
	jmp	.L315
.L415:
	movq	%rax, %rbx
.L315:
	leaq	-465(%rbp), %rax
	movq	%rax, %rdi
	call	_ZNSaI7TwoCharED1Ev
	jmp	.L316
.L418:
	movq	%rax, %rbx
	leaq	-464(%rbp), %rax
	movq	%rax, %rdi
	call	_ZNSt6vectorI7TwoCharSaIS0_EED1Ev
	jmp	.L318
.L417:
	movq	%rax, %rbx
.L318:
	leaq	-433(%rbp), %rax
	movq	%rax, %rdi
	call	_ZNSaI7TwoCharED1Ev
	jmp	.L319
.L420:
	movq	%rax, %rbx
	leaq	-432(%rbp), %rax
	movq	%rax, %rdi
	call	_ZNSt6vectorI7TwoCharSaIS0_EED1Ev
	jmp	.L321
.L419:
	movq	%rax, %rbx
.L321:
	leaq	-401(%rbp), %rax
	movq	%rax, %rdi
	call	_ZNSaI7TwoCharED1Ev
	jmp	.L322
.L422:
	movq	%rax, %rbx
	leaq	-400(%rbp), %rax
	movq	%rax, %rdi
	call	_ZNSt6vectorI7TwoCharSaIS0_EED1Ev
	jmp	.L324
.L421:
	movq	%rax, %rbx
.L324:
	leaq	-369(%rbp), %rax
	movq	%rax, %rdi
	call	_ZNSaI7TwoCharED1Ev
	jmp	.L325
.L424:
	movq	%rax, %rbx
	leaq	-368(%rbp), %rax
	movq	%rax, %rdi
	call	_ZNSt6vectorI7TwoCharSaIS0_EED1Ev
	jmp	.L327
.L423:
	movq	%rax, %rbx
.L327:
	leaq	-337(%rbp), %rax
	movq	%rax, %rdi
	call	_ZNSaI7TwoCharED1Ev
	jmp	.L328
.L426:
	movq	%rax, %rbx
	leaq	-336(%rbp), %rax
	movq	%rax, %rdi
	call	_ZNSt6vectorI7TwoCharSaIS0_EED1Ev
	jmp	.L330
.L425:
	movq	%rax, %rbx
.L330:
	leaq	-305(%rbp), %rax
	movq	%rax, %rdi
	call	_ZNSaI7TwoCharED1Ev
	jmp	.L331
.L428:
	movq	%rax, %rbx
	leaq	-304(%rbp), %rax
	movq	%rax, %rdi
	call	_ZNSt6vectorI7TwoCharSaIS0_EED1Ev
	jmp	.L333
.L427:
	movq	%rax, %rbx
.L333:
	leaq	-273(%rbp), %rax
	movq	%rax, %rdi
	call	_ZNSaI7TwoCharED1Ev
	jmp	.L334
.L430:
	movq	%rax, %rbx
	leaq	-272(%rbp), %rax
	movq	%rax, %rdi
	call	_ZNSt6vectorI7TwoCharSaIS0_EED1Ev
	jmp	.L336
.L429:
	movq	%rax, %rbx
.L336:
	leaq	-241(%rbp), %rax
	movq	%rax, %rdi
	call	_ZNSaI7TwoCharED1Ev
	jmp	.L337
.L432:
	movq	%rax, %rbx
	leaq	-240(%rbp), %rax
	movq	%rax, %rdi
	call	_ZNSt6vectorI7TwoCharSaIS0_EED1Ev
	jmp	.L339
.L431:
	movq	%rax, %rbx
.L339:
	leaq	-209(%rbp), %rax
	movq	%rax, %rdi
	call	_ZNSaI7TwoCharED1Ev
	jmp	.L340
.L434:
	movq	%rax, %rbx
	leaq	-208(%rbp), %rax
	movq	%rax, %rdi
	call	_ZNSt6vectorI7TwoCharSaIS0_EED1Ev
	jmp	.L342
.L433:
	movq	%rax, %rbx
.L342:
	leaq	-177(%rbp), %rax
	movq	%rax, %rdi
	call	_ZNSaI7TwoCharED1Ev
	jmp	.L343
.L436:
	movq	%rax, %rbx
	leaq	-176(%rbp), %rax
	movq	%rax, %rdi
	call	_ZNSt6vectorI7TwoCharSaIS0_EED1Ev
	jmp	.L345
.L435:
	movq	%rax, %rbx
.L345:
	leaq	-145(%rbp), %rax
	movq	%rax, %rdi
	call	_ZNSaI7TwoCharED1Ev
	jmp	.L346
.L438:
	movq	%rax, %rbx
	leaq	-144(%rbp), %rax
	movq	%rax, %rdi
	call	_ZNSt6vectorI7TwoCharSaIS0_EED1Ev
	jmp	.L348
.L437:
	movq	%rax, %rbx
.L348:
	leaq	-113(%rbp), %rax
	movq	%rax, %rdi
	call	_ZNSaI7TwoCharED1Ev
	jmp	.L349
.L440:
	movq	%rax, %rbx
	leaq	-112(%rbp), %rax
	movq	%rax, %rdi
	call	_ZNSt6vectorI7TwoCharSaIS0_EED1Ev
	jmp	.L351
.L439:
	movq	%rax, %rbx
.L351:
	leaq	-81(%rbp), %rax
	movq	%rax, %rdi
	call	_ZNSaI7TwoCharED1Ev
	jmp	.L352
.L442:
	movq	%rax, %rbx
	leaq	-80(%rbp), %rax
	movq	%rax, %rdi
	call	_ZNSt6vectorI7TwoCharSaIS0_EED1Ev
	jmp	.L354
.L441:
	movq	%rax, %rbx
.L354:
	leaq	-49(%rbp), %rax
	movq	%rax, %rdi
	call	_ZNSaI7TwoCharED1Ev
	movq	-1864(%rbp), %rax
	addq	$936, %rax
	movq	%rax, %rdi
	call	_ZN14CharacterGroupD1Ev
.L352:
	movq	-1864(%rbp), %rax
	addq	$912, %rax
	movq	%rax, %rdi
	call	_ZN14CharacterGroupD1Ev
.L349:
	movq	-1864(%rbp), %rax
	addq	$888, %rax
	movq	%rax, %rdi
	call	_ZN14CharacterGroupD1Ev
.L346:
	movq	-1864(%rbp), %rax
	addq	$864, %rax
	movq	%rax, %rdi
	call	_ZN14CharacterGroupD1Ev
.L343:
	movq	-1864(%rbp), %rax
	addq	$840, %rax
	movq	%rax, %rdi
	call	_ZN14CharacterGroupD1Ev
.L340:
	movq	-1864(%rbp), %rax
	addq	$816, %rax
	movq	%rax, %rdi
	call	_ZN14CharacterGroupD1Ev
.L337:
	movq	-1864(%rbp), %rax
	addq	$792, %rax
	movq	%rax, %rdi
	call	_ZN14CharacterGroupD1Ev
.L334:
	movq	-1864(%rbp), %rax
	addq	$768, %rax
	movq	%rax, %rdi
	call	_ZN14CharacterGroupD1Ev
.L331:
	movq	-1864(%rbp), %rax
	addq	$744, %rax
	movq	%rax, %rdi
	call	_ZN14CharacterGroupD1Ev
.L328:
	movq	-1864(%rbp), %rax
	addq	$720, %rax
	movq	%rax, %rdi
	call	_ZN14CharacterGroupD1Ev
.L325:
	movq	-1864(%rbp), %rax
	addq	$696, %rax
	movq	%rax, %rdi
	call	_ZN14CharacterGroupD1Ev
.L322:
	movq	-1864(%rbp), %rax
	addq	$672, %rax
	movq	%rax, %rdi
	call	_ZN14CharacterGroupD1Ev
.L319:
	movq	-1864(%rbp), %rax
	addq	$648, %rax
	movq	%rax, %rdi
	call	_ZN14CharacterGroupD1Ev
.L316:
	movq	-1864(%rbp), %rax
	addq	$624, %rax
	movq	%rax, %rdi
	call	_ZN14CharacterGroupD1Ev
.L313:
	movq	-1864(%rbp), %rax
	addq	$600, %rax
	movq	%rax, %rdi
	call	_ZN14CharacterGroupD1Ev
.L310:
	movq	-1864(%rbp), %rax
	addq	$576, %rax
	movq	%rax, %rdi
	call	_ZN14CharacterGroupD1Ev
.L307:
	movq	-1864(%rbp), %rax
	addq	$552, %rax
	movq	%rax, %rdi
	call	_ZN14CharacterGroupD1Ev
.L304:
	movq	-1864(%rbp), %rax
	addq	$528, %rax
	movq	%rax, %rdi
	call	_ZN14CharacterGroupD1Ev
.L301:
	movq	-1864(%rbp), %rax
	addq	$504, %rax
	movq	%rax, %rdi
	call	_ZN14CharacterGroupD1Ev
.L298:
	movq	-1864(%rbp), %rax
	addq	$480, %rax
	movq	%rax, %rdi
	call	_ZN14CharacterGroupD1Ev
.L295:
	movq	-1864(%rbp), %rax
	addq	$456, %rax
	movq	%rax, %rdi
	call	_ZN14CharacterGroupD1Ev
.L292:
	movq	-1864(%rbp), %rax
	addq	$432, %rax
	movq	%rax, %rdi
	call	_ZN14CharacterGroupD1Ev
.L289:
	movq	-1864(%rbp), %rax
	addq	$408, %rax
	movq	%rax, %rdi
	call	_ZN14CharacterGroupD1Ev
.L286:
	movq	-1864(%rbp), %rax
	addq	$384, %rax
	movq	%rax, %rdi
	call	_ZN14CharacterGroupD1Ev
.L283:
	movq	-1864(%rbp), %rax
	addq	$360, %rax
	movq	%rax, %rdi
	call	_ZN14CharacterGroupD1Ev
.L280:
	movq	-1864(%rbp), %rax
	addq	$336, %rax
	movq	%rax, %rdi
	call	_ZN14CharacterGroupD1Ev
.L277:
	movq	-1864(%rbp), %rax
	addq	$312, %rax
	movq	%rax, %rdi
	call	_ZN14CharacterGroupD1Ev
.L274:
	movq	-1864(%rbp), %rax
	addq	$288, %rax
	movq	%rax, %rdi
	call	_ZN14CharacterGroupD1Ev
.L271:
	movq	-1864(%rbp), %rax
	addq	$264, %rax
	movq	%rax, %rdi
	call	_ZN14CharacterGroupD1Ev
.L268:
	movq	-1864(%rbp), %rax
	addq	$240, %rax
	movq	%rax, %rdi
	call	_ZN14CharacterGroupD1Ev
.L265:
	movq	-1864(%rbp), %rax
	addq	$216, %rax
	movq	%rax, %rdi
	call	_ZN14CharacterGroupD1Ev
.L262:
	movq	-1864(%rbp), %rax
	addq	$192, %rax
	movq	%rax, %rdi
	call	_ZN14CharacterGroupD1Ev
.L253:
	movq	-1864(%rbp), %rax
	addq	$168, %rax
	movq	%rax, %rdi
	call	_ZN14CharacterGroupD1Ev
.L244:
	movq	-1864(%rbp), %rax
	addq	$144, %rax
	movq	%rax, %rdi
	call	_ZN14CharacterGroupD1Ev
.L241:
	movq	-1864(%rbp), %rax
	addq	$120, %rax
	movq	%rax, %rdi
	call	_ZN14CharacterGroupD1Ev
.L233:
	movq	-1864(%rbp), %rax
	addq	$96, %rax
	movq	%rax, %rdi
	call	_ZN14CharacterGroupD1Ev
.L230:
	movq	-1864(%rbp), %rax
	addq	$72, %rax
	movq	%rax, %rdi
	call	_ZN14CharacterGroupD1Ev
.L222:
	movq	-1864(%rbp), %rax
	addq	$48, %rax
	movq	%rax, %rdi
	call	_ZN14CharacterGroupD1Ev
.L219:
	movq	-1864(%rbp), %rax
	addq	$24, %rax
	movq	%rax, %rdi
	call	_ZN14CharacterGroupD1Ev
.L216:
	movq	-1864(%rbp), %rax
	movq	%rax, %rdi
	call	_ZN14CharacterGroupD1Ev
	movq	%rbx, %rax
	movq	%rax, %rdi
	call	_Unwind_Resume@PLT
.LEHE136:
.L443:
	addq	$2488, %rsp
	popq	%rbx
	popq	%r12
	popq	%r13
	popq	%r14
	popq	%r15
	popq	%rbp
	.cfi_def_cfa 7, 8
	ret
	.cfi_endproc
.LFE3150:
	.section	.gcc_except_table
.LLSDA3150:
	.byte	0xff
	.byte	0xff
	.byte	0x1
	.uleb128 .LLSDACSE3150-.LLSDACSB3150
.LLSDACSB3150:
	.uleb128 .LEHB48-.LFB3150
	.uleb128 .LEHE48-.LEHB48
	.uleb128 .L355-.LFB3150
	.uleb128 0
	.uleb128 .LEHB49-.LFB3150
	.uleb128 .LEHE49-.LEHB49
	.uleb128 .L356-.LFB3150
	.uleb128 0
	.uleb128 .LEHB50-.LFB3150
	.uleb128 .LEHE50-.LEHB50
	.uleb128 .L357-.LFB3150
	.uleb128 0
	.uleb128 .LEHB51-.LFB3150
	.uleb128 .LEHE51-.LEHB51
	.uleb128 .L358-.LFB3150
	.uleb128 0
	.uleb128 .LEHB52-.LFB3150
	.uleb128 .LEHE52-.LEHB52
	.uleb128 .L359-.LFB3150
	.uleb128 0
	.uleb128 .LEHB53-.LFB3150
	.uleb128 .LEHE53-.LEHB53
	.uleb128 .L360-.LFB3150
	.uleb128 0
	.uleb128 .LEHB54-.LFB3150
	.uleb128 .LEHE54-.LEHB54
	.uleb128 .L361-.LFB3150
	.uleb128 0
	.uleb128 .LEHB55-.LFB3150
	.uleb128 .LEHE55-.LEHB55
	.uleb128 .L362-.LFB3150
	.uleb128 0
	.uleb128 .LEHB56-.LFB3150
	.uleb128 .LEHE56-.LEHB56
	.uleb128 .L363-.LFB3150
	.uleb128 0
	.uleb128 .LEHB57-.LFB3150
	.uleb128 .LEHE57-.LEHB57
	.uleb128 .L364-.LFB3150
	.uleb128 0
	.uleb128 .LEHB58-.LFB3150
	.uleb128 .LEHE58-.LEHB58
	.uleb128 .L365-.LFB3150
	.uleb128 0
	.uleb128 .LEHB59-.LFB3150
	.uleb128 .LEHE59-.LEHB59
	.uleb128 .L366-.LFB3150
	.uleb128 0
	.uleb128 .LEHB60-.LFB3150
	.uleb128 .LEHE60-.LEHB60
	.uleb128 .L367-.LFB3150
	.uleb128 0
	.uleb128 .LEHB61-.LFB3150
	.uleb128 .LEHE61-.LEHB61
	.uleb128 .L368-.LFB3150
	.uleb128 0
	.uleb128 .LEHB62-.LFB3150
	.uleb128 .LEHE62-.LEHB62
	.uleb128 .L369-.LFB3150
	.uleb128 0
	.uleb128 .LEHB63-.LFB3150
	.uleb128 .LEHE63-.LEHB63
	.uleb128 .L370-.LFB3150
	.uleb128 0
	.uleb128 .LEHB64-.LFB3150
	.uleb128 .LEHE64-.LEHB64
	.uleb128 .L371-.LFB3150
	.uleb128 0
	.uleb128 .LEHB65-.LFB3150
	.uleb128 .LEHE65-.LEHB65
	.uleb128 .L372-.LFB3150
	.uleb128 0
	.uleb128 .LEHB66-.LFB3150
	.uleb128 .LEHE66-.LEHB66
	.uleb128 .L373-.LFB3150
	.uleb128 0
	.uleb128 .LEHB67-.LFB3150
	.uleb128 .LEHE67-.LEHB67
	.uleb128 .L374-.LFB3150
	.uleb128 0
	.uleb128 .LEHB68-.LFB3150
	.uleb128 .LEHE68-.LEHB68
	.uleb128 .L375-.LFB3150
	.uleb128 0
	.uleb128 .LEHB69-.LFB3150
	.uleb128 .LEHE69-.LEHB69
	.uleb128 .L376-.LFB3150
	.uleb128 0
	.uleb128 .LEHB70-.LFB3150
	.uleb128 .LEHE70-.LEHB70
	.uleb128 .L377-.LFB3150
	.uleb128 0
	.uleb128 .LEHB71-.LFB3150
	.uleb128 .LEHE71-.LEHB71
	.uleb128 .L378-.LFB3150
	.uleb128 0
	.uleb128 .LEHB72-.LFB3150
	.uleb128 .LEHE72-.LEHB72
	.uleb128 .L379-.LFB3150
	.uleb128 0
	.uleb128 .LEHB73-.LFB3150
	.uleb128 .LEHE73-.LEHB73
	.uleb128 .L380-.LFB3150
	.uleb128 0
	.uleb128 .LEHB74-.LFB3150
	.uleb128 .LEHE74-.LEHB74
	.uleb128 .L381-.LFB3150
	.uleb128 0
	.uleb128 .LEHB75-.LFB3150
	.uleb128 .LEHE75-.LEHB75
	.uleb128 .L382-.LFB3150
	.uleb128 0
	.uleb128 .LEHB76-.LFB3150
	.uleb128 .LEHE76-.LEHB76
	.uleb128 .L383-.LFB3150
	.uleb128 0
	.uleb128 .LEHB77-.LFB3150
	.uleb128 .LEHE77-.LEHB77
	.uleb128 .L384-.LFB3150
	.uleb128 0
	.uleb128 .LEHB78-.LFB3150
	.uleb128 .LEHE78-.LEHB78
	.uleb128 .L385-.LFB3150
	.uleb128 0
	.uleb128 .LEHB79-.LFB3150
	.uleb128 .LEHE79-.LEHB79
	.uleb128 .L386-.LFB3150
	.uleb128 0
	.uleb128 .LEHB80-.LFB3150
	.uleb128 .LEHE80-.LEHB80
	.uleb128 .L387-.LFB3150
	.uleb128 0
	.uleb128 .LEHB81-.LFB3150
	.uleb128 .LEHE81-.LEHB81
	.uleb128 .L388-.LFB3150
	.uleb128 0
	.uleb128 .LEHB82-.LFB3150
	.uleb128 .LEHE82-.LEHB82
	.uleb128 .L389-.LFB3150
	.uleb128 0
	.uleb128 .LEHB83-.LFB3150
	.uleb128 .LEHE83-.LEHB83
	.uleb128 .L390-.LFB3150
	.uleb128 0
	.uleb128 .LEHB84-.LFB3150
	.uleb128 .LEHE84-.LEHB84
	.uleb128 .L391-.LFB3150
	.uleb128 0
	.uleb128 .LEHB85-.LFB3150
	.uleb128 .LEHE85-.LEHB85
	.uleb128 .L392-.LFB3150
	.uleb128 0
	.uleb128 .LEHB86-.LFB3150
	.uleb128 .LEHE86-.LEHB86
	.uleb128 .L393-.LFB3150
	.uleb128 0
	.uleb128 .LEHB87-.LFB3150
	.uleb128 .LEHE87-.LEHB87
	.uleb128 .L394-.LFB3150
	.uleb128 0
	.uleb128 .LEHB88-.LFB3150
	.uleb128 .LEHE88-.LEHB88
	.uleb128 .L395-.LFB3150
	.uleb128 0
	.uleb128 .LEHB89-.LFB3150
	.uleb128 .LEHE89-.LEHB89
	.uleb128 .L396-.LFB3150
	.uleb128 0
	.uleb128 .LEHB90-.LFB3150
	.uleb128 .LEHE90-.LEHB90
	.uleb128 .L397-.LFB3150
	.uleb128 0
	.uleb128 .LEHB91-.LFB3150
	.uleb128 .LEHE91-.LEHB91
	.uleb128 .L398-.LFB3150
	.uleb128 0
	.uleb128 .LEHB92-.LFB3150
	.uleb128 .LEHE92-.LEHB92
	.uleb128 .L399-.LFB3150
	.uleb128 0
	.uleb128 .LEHB93-.LFB3150
	.uleb128 .LEHE93-.LEHB93
	.uleb128 .L400-.LFB3150
	.uleb128 0
	.uleb128 .LEHB94-.LFB3150
	.uleb128 .LEHE94-.LEHB94
	.uleb128 .L401-.LFB3150
	.uleb128 0
	.uleb128 .LEHB95-.LFB3150
	.uleb128 .LEHE95-.LEHB95
	.uleb128 .L402-.LFB3150
	.uleb128 0
	.uleb128 .LEHB96-.LFB3150
	.uleb128 .LEHE96-.LEHB96
	.uleb128 .L403-.LFB3150
	.uleb128 0
	.uleb128 .LEHB97-.LFB3150
	.uleb128 .LEHE97-.LEHB97
	.uleb128 .L404-.LFB3150
	.uleb128 0
	.uleb128 .LEHB98-.LFB3150
	.uleb128 .LEHE98-.LEHB98
	.uleb128 .L405-.LFB3150
	.uleb128 0
	.uleb128 .LEHB99-.LFB3150
	.uleb128 .LEHE99-.LEHB99
	.uleb128 .L406-.LFB3150
	.uleb128 0
	.uleb128 .LEHB100-.LFB3150
	.uleb128 .LEHE100-.LEHB100
	.uleb128 .L407-.LFB3150
	.uleb128 0
	.uleb128 .LEHB101-.LFB3150
	.uleb128 .LEHE101-.LEHB101
	.uleb128 .L408-.LFB3150
	.uleb128 0
	.uleb128 .LEHB102-.LFB3150
	.uleb128 .LEHE102-.LEHB102
	.uleb128 .L409-.LFB3150
	.uleb128 0
	.uleb128 .LEHB103-.LFB3150
	.uleb128 .LEHE103-.LEHB103
	.uleb128 .L410-.LFB3150
	.uleb128 0
	.uleb128 .LEHB104-.LFB3150
	.uleb128 .LEHE104-.LEHB104
	.uleb128 .L411-.LFB3150
	.uleb128 0
	.uleb128 .LEHB105-.LFB3150
	.uleb128 .LEHE105-.LEHB105
	.uleb128 .L412-.LFB3150
	.uleb128 0
	.uleb128 .LEHB106-.LFB3150
	.uleb128 .LEHE106-.LEHB106
	.uleb128 .L413-.LFB3150
	.uleb128 0
	.uleb128 .LEHB107-.LFB3150
	.uleb128 .LEHE107-.LEHB107
	.uleb128 .L414-.LFB3150
	.uleb128 0
	.uleb128 .LEHB108-.LFB3150
	.uleb128 .LEHE108-.LEHB108
	.uleb128 .L415-.LFB3150
	.uleb128 0
	.uleb128 .LEHB109-.LFB3150
	.uleb128 .LEHE109-.LEHB109
	.uleb128 .L416-.LFB3150
	.uleb128 0
	.uleb128 .LEHB110-.LFB3150
	.uleb128 .LEHE110-.LEHB110
	.uleb128 .L417-.LFB3150
	.uleb128 0
	.uleb128 .LEHB111-.LFB3150
	.uleb128 .LEHE111-.LEHB111
	.uleb128 .L418-.LFB3150
	.uleb128 0
	.uleb128 .LEHB112-.LFB3150
	.uleb128 .LEHE112-.LEHB112
	.uleb128 .L419-.LFB3150
	.uleb128 0
	.uleb128 .LEHB113-.LFB3150
	.uleb128 .LEHE113-.LEHB113
	.uleb128 .L420-.LFB3150
	.uleb128 0
	.uleb128 .LEHB114-.LFB3150
	.uleb128 .LEHE114-.LEHB114
	.uleb128 .L421-.LFB3150
	.uleb128 0
	.uleb128 .LEHB115-.LFB3150
	.uleb128 .LEHE115-.LEHB115
	.uleb128 .L422-.LFB3150
	.uleb128 0
	.uleb128 .LEHB116-.LFB3150
	.uleb128 .LEHE116-.LEHB116
	.uleb128 .L423-.LFB3150
	.uleb128 0
	.uleb128 .LEHB117-.LFB3150
	.uleb128 .LEHE117-.LEHB117
	.uleb128 .L424-.LFB3150
	.uleb128 0
	.uleb128 .LEHB118-.LFB3150
	.uleb128 .LEHE118-.LEHB118
	.uleb128 .L425-.LFB3150
	.uleb128 0
	.uleb128 .LEHB119-.LFB3150
	.uleb128 .LEHE119-.LEHB119
	.uleb128 .L426-.LFB3150
	.uleb128 0
	.uleb128 .LEHB120-.LFB3150
	.uleb128 .LEHE120-.LEHB120
	.uleb128 .L427-.LFB3150
	.uleb128 0
	.uleb128 .LEHB121-.LFB3150
	.uleb128 .LEHE121-.LEHB121
	.uleb128 .L428-.LFB3150
	.uleb128 0
	.uleb128 .LEHB122-.LFB3150
	.uleb128 .LEHE122-.LEHB122
	.uleb128 .L429-.LFB3150
	.uleb128 0
	.uleb128 .LEHB123-.LFB3150
	.uleb128 .LEHE123-.LEHB123
	.uleb128 .L430-.LFB3150
	.uleb128 0
	.uleb128 .LEHB124-.LFB3150
	.uleb128 .LEHE124-.LEHB124
	.uleb128 .L431-.LFB3150
	.uleb128 0
	.uleb128 .LEHB125-.LFB3150
	.uleb128 .LEHE125-.LEHB125
	.uleb128 .L432-.LFB3150
	.uleb128 0
	.uleb128 .LEHB126-.LFB3150
	.uleb128 .LEHE126-.LEHB126
	.uleb128 .L433-.LFB3150
	.uleb128 0
	.uleb128 .LEHB127-.LFB3150
	.uleb128 .LEHE127-.LEHB127
	.uleb128 .L434-.LFB3150
	.uleb128 0
	.uleb128 .LEHB128-.LFB3150
	.uleb128 .LEHE128-.LEHB128
	.uleb128 .L435-.LFB3150
	.uleb128 0
	.uleb128 .LEHB129-.LFB3150
	.uleb128 .LEHE129-.LEHB129
	.uleb128 .L436-.LFB3150
	.uleb128 0
	.uleb128 .LEHB130-.LFB3150
	.uleb128 .LEHE130-.LEHB130
	.uleb128 .L437-.LFB3150
	.uleb128 0
	.uleb128 .LEHB131-.LFB3150
	.uleb128 .LEHE131-.LEHB131
	.uleb128 .L438-.LFB3150
	.uleb128 0
	.uleb128 .LEHB132-.LFB3150
	.uleb128 .LEHE132-.LEHB132
	.uleb128 .L439-.LFB3150
	.uleb128 0
	.uleb128 .LEHB133-.LFB3150
	.uleb128 .LEHE133-.LEHB133
	.uleb128 .L440-.LFB3150
	.uleb128 0
	.uleb128 .LEHB134-.LFB3150
	.uleb128 .LEHE134-.LEHB134
	.uleb128 .L441-.LFB3150
	.uleb128 0
	.uleb128 .LEHB135-.LFB3150
	.uleb128 .LEHE135-.LEHB135
	.uleb128 .L442-.LFB3150
	.uleb128 0
	.uleb128 .LEHB136-.LFB3150
	.uleb128 .LEHE136-.LEHB136
	.uleb128 0
	.uleb128 0
.LLSDACSE3150:
	.text
	.size	_ZN15CharacterGroupsC2Ev, .-_ZN15CharacterGroupsC2Ev
	.globl	_ZN15CharacterGroupsC1Ev
	.set	_ZN15CharacterGroupsC1Ev,_ZN15CharacterGroupsC2Ev
	.align 2
	.globl	_ZN15CharacterGroupsD2Ev
	.type	_ZN15CharacterGroupsD2Ev, @function
_ZN15CharacterGroupsD2Ev:
.LFB3153:
	.cfi_startproc
	pushq	%rbp
	.cfi_def_cfa_offset 16
	.cfi_offset 6, -16
	movq	%rsp, %rbp
	.cfi_def_cfa_register 6
	subq	$16, %rsp
	movq	%rdi, -8(%rbp)
	movq	-8(%rbp), %rax
	addq	$960, %rax
	movq	%rax, %rdi
	call	_ZN14CharacterGroupD1Ev
	movq	-8(%rbp), %rax
	addq	$936, %rax
	movq	%rax, %rdi
	call	_ZN14CharacterGroupD1Ev
	movq	-8(%rbp), %rax
	addq	$912, %rax
	movq	%rax, %rdi
	call	_ZN14CharacterGroupD1Ev
	movq	-8(%rbp), %rax
	addq	$888, %rax
	movq	%rax, %rdi
	call	_ZN14CharacterGroupD1Ev
	movq	-8(%rbp), %rax
	addq	$864, %rax
	movq	%rax, %rdi
	call	_ZN14CharacterGroupD1Ev
	movq	-8(%rbp), %rax
	addq	$840, %rax
	movq	%rax, %rdi
	call	_ZN14CharacterGroupD1Ev
	movq	-8(%rbp), %rax
	addq	$816, %rax
	movq	%rax, %rdi
	call	_ZN14CharacterGroupD1Ev
	movq	-8(%rbp), %rax
	addq	$792, %rax
	movq	%rax, %rdi
	call	_ZN14CharacterGroupD1Ev
	movq	-8(%rbp), %rax
	addq	$768, %rax
	movq	%rax, %rdi
	call	_ZN14CharacterGroupD1Ev
	movq	-8(%rbp), %rax
	addq	$744, %rax
	movq	%rax, %rdi
	call	_ZN14CharacterGroupD1Ev
	movq	-8(%rbp), %rax
	addq	$720, %rax
	movq	%rax, %rdi
	call	_ZN14CharacterGroupD1Ev
	movq	-8(%rbp), %rax
	addq	$696, %rax
	movq	%rax, %rdi
	call	_ZN14CharacterGroupD1Ev
	movq	-8(%rbp), %rax
	addq	$672, %rax
	movq	%rax, %rdi
	call	_ZN14CharacterGroupD1Ev
	movq	-8(%rbp), %rax
	addq	$648, %rax
	movq	%rax, %rdi
	call	_ZN14CharacterGroupD1Ev
	movq	-8(%rbp), %rax
	addq	$624, %rax
	movq	%rax, %rdi
	call	_ZN14CharacterGroupD1Ev
	movq	-8(%rbp), %rax
	addq	$600, %rax
	movq	%rax, %rdi
	call	_ZN14CharacterGroupD1Ev
	movq	-8(%rbp), %rax
	addq	$576, %rax
	movq	%rax, %rdi
	call	_ZN14CharacterGroupD1Ev
	movq	-8(%rbp), %rax
	addq	$552, %rax
	movq	%rax, %rdi
	call	_ZN14CharacterGroupD1Ev
	movq	-8(%rbp), %rax
	addq	$528, %rax
	movq	%rax, %rdi
	call	_ZN14CharacterGroupD1Ev
	movq	-8(%rbp), %rax
	addq	$504, %rax
	movq	%rax, %rdi
	call	_ZN14CharacterGroupD1Ev
	movq	-8(%rbp), %rax
	addq	$480, %rax
	movq	%rax, %rdi
	call	_ZN14CharacterGroupD1Ev
	movq	-8(%rbp), %rax
	addq	$456, %rax
	movq	%rax, %rdi
	call	_ZN14CharacterGroupD1Ev
	movq	-8(%rbp), %rax
	addq	$432, %rax
	movq	%rax, %rdi
	call	_ZN14CharacterGroupD1Ev
	movq	-8(%rbp), %rax
	addq	$408, %rax
	movq	%rax, %rdi
	call	_ZN14CharacterGroupD1Ev
	movq	-8(%rbp), %rax
	addq	$384, %rax
	movq	%rax, %rdi
	call	_ZN14CharacterGroupD1Ev
	movq	-8(%rbp), %rax
	addq	$360, %rax
	movq	%rax, %rdi
	call	_ZN14CharacterGroupD1Ev
	movq	-8(%rbp), %rax
	addq	$336, %rax
	movq	%rax, %rdi
	call	_ZN14CharacterGroupD1Ev
	movq	-8(%rbp), %rax
	addq	$312, %rax
	movq	%rax, %rdi
	call	_ZN14CharacterGroupD1Ev
	movq	-8(%rbp), %rax
	addq	$288, %rax
	movq	%rax, %rdi
	call	_ZN14CharacterGroupD1Ev
	movq	-8(%rbp), %rax
	addq	$264, %rax
	movq	%rax, %rdi
	call	_ZN14CharacterGroupD1Ev
	movq	-8(%rbp), %rax
	addq	$240, %rax
	movq	%rax, %rdi
	call	_ZN14CharacterGroupD1Ev
	movq	-8(%rbp), %rax
	addq	$216, %rax
	movq	%rax, %rdi
	call	_ZN14CharacterGroupD1Ev
	movq	-8(%rbp), %rax
	addq	$192, %rax
	movq	%rax, %rdi
	call	_ZN14CharacterGroupD1Ev
	movq	-8(%rbp), %rax
	addq	$168, %rax
	movq	%rax, %rdi
	call	_ZN14CharacterGroupD1Ev
	movq	-8(%rbp), %rax
	addq	$144, %rax
	movq	%rax, %rdi
	call	_ZN14CharacterGroupD1Ev
	movq	-8(%rbp), %rax
	addq	$120, %rax
	movq	%rax, %rdi
	call	_ZN14CharacterGroupD1Ev
	movq	-8(%rbp), %rax
	addq	$96, %rax
	movq	%rax, %rdi
	call	_ZN14CharacterGroupD1Ev
	movq	-8(%rbp), %rax
	addq	$72, %rax
	movq	%rax, %rdi
	call	_ZN14CharacterGroupD1Ev
	movq	-8(%rbp), %rax
	addq	$48, %rax
	movq	%rax, %rdi
	call	_ZN14CharacterGroupD1Ev
	movq	-8(%rbp), %rax
	addq	$24, %rax
	movq	%rax, %rdi
	call	_ZN14CharacterGroupD1Ev
	movq	-8(%rbp), %rax
	movq	%rax, %rdi
	call	_ZN14CharacterGroupD1Ev
	nop
	leave
	.cfi_def_cfa 7, 8
	ret
	.cfi_endproc
.LFE3153:
	.size	_ZN15CharacterGroupsD2Ev, .-_ZN15CharacterGroupsD2Ev
	.globl	_ZN15CharacterGroupsD1Ev
	.set	_ZN15CharacterGroupsD1Ev,_ZN15CharacterGroupsD2Ev
	.section	.text._ZNSt12__shared_ptrI19CharacterGroupTokenLN9__gnu_cxx12_Lock_policyE2EED2Ev,"axG",@progbits,_ZNSt12__shared_ptrI19CharacterGroupTokenLN9__gnu_cxx12_Lock_policyE2EED5Ev,comdat
	.align 2
	.weak	_ZNSt12__shared_ptrI19CharacterGroupTokenLN9__gnu_cxx12_Lock_policyE2EED2Ev
	.type	_ZNSt12__shared_ptrI19CharacterGroupTokenLN9__gnu_cxx12_Lock_policyE2EED2Ev, @function
_ZNSt12__shared_ptrI19CharacterGroupTokenLN9__gnu_cxx12_Lock_policyE2EED2Ev:
.LFB3158:
	.cfi_startproc
	pushq	%rbp
	.cfi_def_cfa_offset 16
	.cfi_offset 6, -16
	movq	%rsp, %rbp
	.cfi_def_cfa_register 6
	subq	$16, %rsp
	movq	%rdi, -8(%rbp)
	movq	-8(%rbp), %rax
	addq	$8, %rax
	movq	%rax, %rdi
	call	_ZNSt14__shared_countILN9__gnu_cxx12_Lock_policyE2EED1Ev
	nop
	leave
	.cfi_def_cfa 7, 8
	ret
	.cfi_endproc
.LFE3158:
	.size	_ZNSt12__shared_ptrI19CharacterGroupTokenLN9__gnu_cxx12_Lock_policyE2EED2Ev, .-_ZNSt12__shared_ptrI19CharacterGroupTokenLN9__gnu_cxx12_Lock_policyE2EED2Ev
	.weak	_ZNSt12__shared_ptrI19CharacterGroupTokenLN9__gnu_cxx12_Lock_policyE2EED1Ev
	.set	_ZNSt12__shared_ptrI19CharacterGroupTokenLN9__gnu_cxx12_Lock_policyE2EED1Ev,_ZNSt12__shared_ptrI19CharacterGroupTokenLN9__gnu_cxx12_Lock_policyE2EED2Ev
	.section	.text._ZNSt10shared_ptrI19CharacterGroupTokenED2Ev,"axG",@progbits,_ZNSt10shared_ptrI19CharacterGroupTokenED5Ev,comdat
	.align 2
	.weak	_ZNSt10shared_ptrI19CharacterGroupTokenED2Ev
	.type	_ZNSt10shared_ptrI19CharacterGroupTokenED2Ev, @function
_ZNSt10shared_ptrI19CharacterGroupTokenED2Ev:
.LFB3160:
	.cfi_startproc
	pushq	%rbp
	.cfi_def_cfa_offset 16
	.cfi_offset 6, -16
	movq	%rsp, %rbp
	.cfi_def_cfa_register 6
	subq	$16, %rsp
	movq	%rdi, -8(%rbp)
	movq	-8(%rbp), %rax
	movq	%rax, %rdi
	call	_ZNSt12__shared_ptrI19CharacterGroupTokenLN9__gnu_cxx12_Lock_policyE2EED2Ev
	nop
	leave
	.cfi_def_cfa 7, 8
	ret
	.cfi_endproc
.LFE3160:
	.size	_ZNSt10shared_ptrI19CharacterGroupTokenED2Ev, .-_ZNSt10shared_ptrI19CharacterGroupTokenED2Ev
	.weak	_ZNSt10shared_ptrI19CharacterGroupTokenED1Ev
	.set	_ZNSt10shared_ptrI19CharacterGroupTokenED1Ev,_ZNSt10shared_ptrI19CharacterGroupTokenED2Ev
	.section	.text._ZNSt12__shared_ptrI15IdentifierTokenLN9__gnu_cxx12_Lock_policyE2EED2Ev,"axG",@progbits,_ZNSt12__shared_ptrI15IdentifierTokenLN9__gnu_cxx12_Lock_policyE2EED5Ev,comdat
	.align 2
	.weak	_ZNSt12__shared_ptrI15IdentifierTokenLN9__gnu_cxx12_Lock_policyE2EED2Ev
	.type	_ZNSt12__shared_ptrI15IdentifierTokenLN9__gnu_cxx12_Lock_policyE2EED2Ev, @function
_ZNSt12__shared_ptrI15IdentifierTokenLN9__gnu_cxx12_Lock_policyE2EED2Ev:
.LFB3165:
	.cfi_startproc
	pushq	%rbp
	.cfi_def_cfa_offset 16
	.cfi_offset 6, -16
	movq	%rsp, %rbp
	.cfi_def_cfa_register 6
	subq	$16, %rsp
	movq	%rdi, -8(%rbp)
	movq	-8(%rbp), %rax
	addq	$8, %rax
	movq	%rax, %rdi
	call	_ZNSt14__shared_countILN9__gnu_cxx12_Lock_policyE2EED1Ev
	nop
	leave
	.cfi_def_cfa 7, 8
	ret
	.cfi_endproc
.LFE3165:
	.size	_ZNSt12__shared_ptrI15IdentifierTokenLN9__gnu_cxx12_Lock_policyE2EED2Ev, .-_ZNSt12__shared_ptrI15IdentifierTokenLN9__gnu_cxx12_Lock_policyE2EED2Ev
	.weak	_ZNSt12__shared_ptrI15IdentifierTokenLN9__gnu_cxx12_Lock_policyE2EED1Ev
	.set	_ZNSt12__shared_ptrI15IdentifierTokenLN9__gnu_cxx12_Lock_policyE2EED1Ev,_ZNSt12__shared_ptrI15IdentifierTokenLN9__gnu_cxx12_Lock_policyE2EED2Ev
	.section	.text._ZNSt10shared_ptrI15IdentifierTokenED2Ev,"axG",@progbits,_ZNSt10shared_ptrI15IdentifierTokenED5Ev,comdat
	.align 2
	.weak	_ZNSt10shared_ptrI15IdentifierTokenED2Ev
	.type	_ZNSt10shared_ptrI15IdentifierTokenED2Ev, @function
_ZNSt10shared_ptrI15IdentifierTokenED2Ev:
.LFB3167:
	.cfi_startproc
	pushq	%rbp
	.cfi_def_cfa_offset 16
	.cfi_offset 6, -16
	movq	%rsp, %rbp
	.cfi_def_cfa_register 6
	subq	$16, %rsp
	movq	%rdi, -8(%rbp)
	movq	-8(%rbp), %rax
	movq	%rax, %rdi
	call	_ZNSt12__shared_ptrI15IdentifierTokenLN9__gnu_cxx12_Lock_policyE2EED2Ev
	nop
	leave
	.cfi_def_cfa 7, 8
	ret
	.cfi_endproc
.LFE3167:
	.size	_ZNSt10shared_ptrI15IdentifierTokenED2Ev, .-_ZNSt10shared_ptrI15IdentifierTokenED2Ev
	.weak	_ZNSt10shared_ptrI15IdentifierTokenED1Ev
	.set	_ZNSt10shared_ptrI15IdentifierTokenED1Ev,_ZNSt10shared_ptrI15IdentifierTokenED2Ev
	.section	.text._ZNSt12__shared_ptrI16NumberConstTokenLN9__gnu_cxx12_Lock_policyE2EED2Ev,"axG",@progbits,_ZNSt12__shared_ptrI16NumberConstTokenLN9__gnu_cxx12_Lock_policyE2EED5Ev,comdat
	.align 2
	.weak	_ZNSt12__shared_ptrI16NumberConstTokenLN9__gnu_cxx12_Lock_policyE2EED2Ev
	.type	_ZNSt12__shared_ptrI16NumberConstTokenLN9__gnu_cxx12_Lock_policyE2EED2Ev, @function
_ZNSt12__shared_ptrI16NumberConstTokenLN9__gnu_cxx12_Lock_policyE2EED2Ev:
.LFB3172:
	.cfi_startproc
	pushq	%rbp
	.cfi_def_cfa_offset 16
	.cfi_offset 6, -16
	movq	%rsp, %rbp
	.cfi_def_cfa_register 6
	subq	$16, %rsp
	movq	%rdi, -8(%rbp)
	movq	-8(%rbp), %rax
	addq	$8, %rax
	movq	%rax, %rdi
	call	_ZNSt14__shared_countILN9__gnu_cxx12_Lock_policyE2EED1Ev
	nop
	leave
	.cfi_def_cfa 7, 8
	ret
	.cfi_endproc
.LFE3172:
	.size	_ZNSt12__shared_ptrI16NumberConstTokenLN9__gnu_cxx12_Lock_policyE2EED2Ev, .-_ZNSt12__shared_ptrI16NumberConstTokenLN9__gnu_cxx12_Lock_policyE2EED2Ev
	.weak	_ZNSt12__shared_ptrI16NumberConstTokenLN9__gnu_cxx12_Lock_policyE2EED1Ev
	.set	_ZNSt12__shared_ptrI16NumberConstTokenLN9__gnu_cxx12_Lock_policyE2EED1Ev,_ZNSt12__shared_ptrI16NumberConstTokenLN9__gnu_cxx12_Lock_policyE2EED2Ev
	.section	.text._ZNSt10shared_ptrI16NumberConstTokenED2Ev,"axG",@progbits,_ZNSt10shared_ptrI16NumberConstTokenED5Ev,comdat
	.align 2
	.weak	_ZNSt10shared_ptrI16NumberConstTokenED2Ev
	.type	_ZNSt10shared_ptrI16NumberConstTokenED2Ev, @function
_ZNSt10shared_ptrI16NumberConstTokenED2Ev:
.LFB3174:
	.cfi_startproc
	pushq	%rbp
	.cfi_def_cfa_offset 16
	.cfi_offset 6, -16
	movq	%rsp, %rbp
	.cfi_def_cfa_register 6
	subq	$16, %rsp
	movq	%rdi, -8(%rbp)
	movq	-8(%rbp), %rax
	movq	%rax, %rdi
	call	_ZNSt12__shared_ptrI16NumberConstTokenLN9__gnu_cxx12_Lock_policyE2EED2Ev
	nop
	leave
	.cfi_def_cfa 7, 8
	ret
	.cfi_endproc
.LFE3174:
	.size	_ZNSt10shared_ptrI16NumberConstTokenED2Ev, .-_ZNSt10shared_ptrI16NumberConstTokenED2Ev
	.weak	_ZNSt10shared_ptrI16NumberConstTokenED1Ev
	.set	_ZNSt10shared_ptrI16NumberConstTokenED1Ev,_ZNSt10shared_ptrI16NumberConstTokenED2Ev
	.section	.text._ZNSt12__shared_ptrI16StringConstTokenLN9__gnu_cxx12_Lock_policyE2EED2Ev,"axG",@progbits,_ZNSt12__shared_ptrI16StringConstTokenLN9__gnu_cxx12_Lock_policyE2EED5Ev,comdat
	.align 2
	.weak	_ZNSt12__shared_ptrI16StringConstTokenLN9__gnu_cxx12_Lock_policyE2EED2Ev
	.type	_ZNSt12__shared_ptrI16StringConstTokenLN9__gnu_cxx12_Lock_policyE2EED2Ev, @function
_ZNSt12__shared_ptrI16StringConstTokenLN9__gnu_cxx12_Lock_policyE2EED2Ev:
.LFB3179:
	.cfi_startproc
	pushq	%rbp
	.cfi_def_cfa_offset 16
	.cfi_offset 6, -16
	movq	%rsp, %rbp
	.cfi_def_cfa_register 6
	subq	$16, %rsp
	movq	%rdi, -8(%rbp)
	movq	-8(%rbp), %rax
	addq	$8, %rax
	movq	%rax, %rdi
	call	_ZNSt14__shared_countILN9__gnu_cxx12_Lock_policyE2EED1Ev
	nop
	leave
	.cfi_def_cfa 7, 8
	ret
	.cfi_endproc
.LFE3179:
	.size	_ZNSt12__shared_ptrI16StringConstTokenLN9__gnu_cxx12_Lock_policyE2EED2Ev, .-_ZNSt12__shared_ptrI16StringConstTokenLN9__gnu_cxx12_Lock_policyE2EED2Ev
	.weak	_ZNSt12__shared_ptrI16StringConstTokenLN9__gnu_cxx12_Lock_policyE2EED1Ev
	.set	_ZNSt12__shared_ptrI16StringConstTokenLN9__gnu_cxx12_Lock_policyE2EED1Ev,_ZNSt12__shared_ptrI16StringConstTokenLN9__gnu_cxx12_Lock_policyE2EED2Ev
	.section	.text._ZNSt10shared_ptrI16StringConstTokenED2Ev,"axG",@progbits,_ZNSt10shared_ptrI16StringConstTokenED5Ev,comdat
	.align 2
	.weak	_ZNSt10shared_ptrI16StringConstTokenED2Ev
	.type	_ZNSt10shared_ptrI16StringConstTokenED2Ev, @function
_ZNSt10shared_ptrI16StringConstTokenED2Ev:
.LFB3181:
	.cfi_startproc
	pushq	%rbp
	.cfi_def_cfa_offset 16
	.cfi_offset 6, -16
	movq	%rsp, %rbp
	.cfi_def_cfa_register 6
	subq	$16, %rsp
	movq	%rdi, -8(%rbp)
	movq	-8(%rbp), %rax
	movq	%rax, %rdi
	call	_ZNSt12__shared_ptrI16StringConstTokenLN9__gnu_cxx12_Lock_policyE2EED2Ev
	nop
	leave
	.cfi_def_cfa 7, 8
	ret
	.cfi_endproc
.LFE3181:
	.size	_ZNSt10shared_ptrI16StringConstTokenED2Ev, .-_ZNSt10shared_ptrI16StringConstTokenED2Ev
	.weak	_ZNSt10shared_ptrI16StringConstTokenED1Ev
	.set	_ZNSt10shared_ptrI16StringConstTokenED1Ev,_ZNSt10shared_ptrI16StringConstTokenED2Ev
	.section	.rodata
.LC6:
	.string	"statementEnd"
.LC7:
	.string	"parenthesisOpen"
.LC8:
	.string	"parenthesisClose"
.LC9:
	.string	"bodyOpen"
.LC10:
	.string	"bodyClose"
.LC11:
	.string	"seperator"
.LC12:
	.string	"equalOperator"
.LC13:
	.string	"notEqualOperator"
.LC14:
	.string	"lessThanOperator"
.LC15:
	.string	"greaterThanOperator"
.LC16:
	.string	"lessThanOrEqualOperator"
.LC17:
	.string	"greaterThanOrEqualOperator"
.LC18:
	.string	"addOperator"
.LC19:
	.string	"subOperator"
.LC20:
	.string	"mulOperator"
.LC21:
	.string	"divOperator"
.LC22:
	.string	"modOperator"
.LC23:
	.string	"assignOperator"
.LC24:
	.string	"addAssignOperator"
.LC25:
	.string	"subAssignOperator"
.LC26:
	.string	"mulAssignOperator"
.LC27:
	.string	"divAssignOperator"
.LC28:
	.string	"modAssignOperator"
.LC29:
	.string	"incrementOperator"
.LC30:
	.string	"decrementOperator"
.LC31:
	.string	"negateOperator"
.LC32:
	.string	"notOperator"
.LC33:
	.string	"andOperator"
.LC34:
	.string	"orOperator"
.LC35:
	.string	"0"
	.section	.text._ZN11ConstTokensC2Ev,"axG",@progbits,_ZN11ConstTokensC5Ev,comdat
	.align 2
	.weak	_ZN11ConstTokensC2Ev
	.type	_ZN11ConstTokensC2Ev, @function
_ZN11ConstTokensC2Ev:
.LFB3184:
	.cfi_startproc
	.cfi_personality 0x9b,DW.ref.__gxx_personality_v0
	.cfi_lsda 0x1b,.LLSDA3184
	pushq	%rbp
	.cfi_def_cfa_offset 16
	.cfi_offset 6, -16
	movq	%rsp, %rbp
	.cfi_def_cfa_register 6
	pushq	%r12
	pushq	%rbx
	subq	$1552, %rsp
	.cfi_offset 12, -24
	.cfi_offset 3, -32
	movq	%rdi, -1560(%rbp)
	movq	-1560(%rbp), %rbx
	movl	$64, %edi
.LEHB137:
	call	_Znwm@PLT
.LEHE137:
	movq	%rax, %r12
	leaq	-1505(%rbp), %rax
	movq	%rax, %rdi
	call	_ZNSaIcEC1Ev@PLT
	leaq	-1505(%rbp), %rdx
	leaq	-1552(%rbp), %rax
	leaq	.LC6(%rip), %rcx
	movq	%rcx, %rsi
	movq	%rax, %rdi
.LEHB138:
	call	_ZNSt7__cxx1112basic_stringIcSt11char_traitsIcESaIcEEC1IS3_EEPKcRKS3_
.LEHE138:
	leaq	-1552(%rbp), %rax
	leaq	24+_ZL15CharacterGroups(%rip), %rdx
	movq	%rax, %rsi
	movq	%r12, %rdi
.LEHB139:
	call	_ZN19CharacterGroupTokenC1ENSt7__cxx1112basic_stringIcSt11char_traitsIcESaIcEEER14CharacterGroup
	movq	%r12, %rsi
	movq	%rbx, %rdi
	call	_ZNSt10shared_ptrI19CharacterGroupTokenEC1IS0_vEEPT_
.LEHE139:
	leaq	-1552(%rbp), %rax
	movq	%rax, %rdi
	call	_ZNSt7__cxx1112basic_stringIcSt11char_traitsIcESaIcEED1Ev@PLT
	leaq	-1505(%rbp), %rax
	movq	%rax, %rdi
	call	_ZNSaIcED1Ev@PLT
	movq	-1560(%rbp), %rax
	leaq	16(%rax), %rbx
	movl	$64, %edi
.LEHB140:
	call	_Znwm@PLT
.LEHE140:
	movq	%rax, %r12
	leaq	-1457(%rbp), %rax
	movq	%rax, %rdi
	call	_ZNSaIcEC1Ev@PLT
	leaq	-1457(%rbp), %rdx
	leaq	-1504(%rbp), %rax
	leaq	.LC7(%rip), %rcx
	movq	%rcx, %rsi
	movq	%rax, %rdi
.LEHB141:
	call	_ZNSt7__cxx1112basic_stringIcSt11char_traitsIcESaIcEEC1IS3_EEPKcRKS3_
.LEHE141:
	leaq	-1504(%rbp), %rax
	leaq	288+_ZL15CharacterGroups(%rip), %rdx
	movq	%rax, %rsi
	movq	%r12, %rdi
.LEHB142:
	call	_ZN19CharacterGroupTokenC1ENSt7__cxx1112basic_stringIcSt11char_traitsIcESaIcEEER14CharacterGroup
	movq	%r12, %rsi
	movq	%rbx, %rdi
	call	_ZNSt10shared_ptrI19CharacterGroupTokenEC1IS0_vEEPT_
.LEHE142:
	leaq	-1504(%rbp), %rax
	movq	%rax, %rdi
	call	_ZNSt7__cxx1112basic_stringIcSt11char_traitsIcESaIcEED1Ev@PLT
	leaq	-1457(%rbp), %rax
	movq	%rax, %rdi
	call	_ZNSaIcED1Ev@PLT
	movq	-1560(%rbp), %rax
	leaq	32(%rax), %rbx
	movl	$64, %edi
.LEHB143:
	call	_Znwm@PLT
.LEHE143:
	movq	%rax, %r12
	leaq	-1409(%rbp), %rax
	movq	%rax, %rdi
	call	_ZNSaIcEC1Ev@PLT
	leaq	-1409(%rbp), %rdx
	leaq	-1456(%rbp), %rax
	leaq	.LC8(%rip), %rcx
	movq	%rcx, %rsi
	movq	%rax, %rdi
.LEHB144:
	call	_ZNSt7__cxx1112basic_stringIcSt11char_traitsIcESaIcEEC1IS3_EEPKcRKS3_
.LEHE144:
	leaq	-1456(%rbp), %rax
	leaq	312+_ZL15CharacterGroups(%rip), %rdx
	movq	%rax, %rsi
	movq	%r12, %rdi
.LEHB145:
	call	_ZN19CharacterGroupTokenC1ENSt7__cxx1112basic_stringIcSt11char_traitsIcESaIcEEER14CharacterGroup
	movq	%r12, %rsi
	movq	%rbx, %rdi
	call	_ZNSt10shared_ptrI19CharacterGroupTokenEC1IS0_vEEPT_
.LEHE145:
	leaq	-1456(%rbp), %rax
	movq	%rax, %rdi
	call	_ZNSt7__cxx1112basic_stringIcSt11char_traitsIcESaIcEED1Ev@PLT
	leaq	-1409(%rbp), %rax
	movq	%rax, %rdi
	call	_ZNSaIcED1Ev@PLT
	movq	-1560(%rbp), %rax
	leaq	48(%rax), %rbx
	movl	$64, %edi
.LEHB146:
	call	_Znwm@PLT
.LEHE146:
	movq	%rax, %r12
	leaq	-1361(%rbp), %rax
	movq	%rax, %rdi
	call	_ZNSaIcEC1Ev@PLT
	leaq	-1361(%rbp), %rdx
	leaq	-1408(%rbp), %rax
	leaq	.LC9(%rip), %rcx
	movq	%rcx, %rsi
	movq	%rax, %rdi
.LEHB147:
	call	_ZNSt7__cxx1112basic_stringIcSt11char_traitsIcESaIcEEC1IS3_EEPKcRKS3_
.LEHE147:
	leaq	-1408(%rbp), %rax
	leaq	240+_ZL15CharacterGroups(%rip), %rdx
	movq	%rax, %rsi
	movq	%r12, %rdi
.LEHB148:
	call	_ZN19CharacterGroupTokenC1ENSt7__cxx1112basic_stringIcSt11char_traitsIcESaIcEEER14CharacterGroup
	movq	%r12, %rsi
	movq	%rbx, %rdi
	call	_ZNSt10shared_ptrI19CharacterGroupTokenEC1IS0_vEEPT_
.LEHE148:
	leaq	-1408(%rbp), %rax
	movq	%rax, %rdi
	call	_ZNSt7__cxx1112basic_stringIcSt11char_traitsIcESaIcEED1Ev@PLT
	leaq	-1361(%rbp), %rax
	movq	%rax, %rdi
	call	_ZNSaIcED1Ev@PLT
	movq	-1560(%rbp), %rax
	leaq	64(%rax), %rbx
	movl	$64, %edi
.LEHB149:
	call	_Znwm@PLT
.LEHE149:
	movq	%rax, %r12
	leaq	-1313(%rbp), %rax
	movq	%rax, %rdi
	call	_ZNSaIcEC1Ev@PLT
	leaq	-1313(%rbp), %rdx
	leaq	-1360(%rbp), %rax
	leaq	.LC10(%rip), %rcx
	movq	%rcx, %rsi
	movq	%rax, %rdi
.LEHB150:
	call	_ZNSt7__cxx1112basic_stringIcSt11char_traitsIcESaIcEEC1IS3_EEPKcRKS3_
.LEHE150:
	leaq	-1360(%rbp), %rax
	leaq	264+_ZL15CharacterGroups(%rip), %rdx
	movq	%rax, %rsi
	movq	%r12, %rdi
.LEHB151:
	call	_ZN19CharacterGroupTokenC1ENSt7__cxx1112basic_stringIcSt11char_traitsIcESaIcEEER14CharacterGroup
	movq	%r12, %rsi
	movq	%rbx, %rdi
	call	_ZNSt10shared_ptrI19CharacterGroupTokenEC1IS0_vEEPT_
.LEHE151:
	leaq	-1360(%rbp), %rax
	movq	%rax, %rdi
	call	_ZNSt7__cxx1112basic_stringIcSt11char_traitsIcESaIcEED1Ev@PLT
	leaq	-1313(%rbp), %rax
	movq	%rax, %rdi
	call	_ZNSaIcED1Ev@PLT
	movq	-1560(%rbp), %rax
	leaq	80(%rax), %rbx
	movl	$64, %edi
.LEHB152:
	call	_Znwm@PLT
.LEHE152:
	movq	%rax, %r12
	leaq	-1265(%rbp), %rax
	movq	%rax, %rdi
	call	_ZNSaIcEC1Ev@PLT
	leaq	-1265(%rbp), %rdx
	leaq	-1312(%rbp), %rax
	leaq	.LC11(%rip), %rcx
	movq	%rcx, %rsi
	movq	%rax, %rdi
.LEHB153:
	call	_ZNSt7__cxx1112basic_stringIcSt11char_traitsIcESaIcEEC1IS3_EEPKcRKS3_
.LEHE153:
	leaq	-1312(%rbp), %rax
	leaq	336+_ZL15CharacterGroups(%rip), %rdx
	movq	%rax, %rsi
	movq	%r12, %rdi
.LEHB154:
	call	_ZN19CharacterGroupTokenC1ENSt7__cxx1112basic_stringIcSt11char_traitsIcESaIcEEER14CharacterGroup
	movq	%r12, %rsi
	movq	%rbx, %rdi
	call	_ZNSt10shared_ptrI19CharacterGroupTokenEC1IS0_vEEPT_
.LEHE154:
	leaq	-1312(%rbp), %rax
	movq	%rax, %rdi
	call	_ZNSt7__cxx1112basic_stringIcSt11char_traitsIcESaIcEED1Ev@PLT
	leaq	-1265(%rbp), %rax
	movq	%rax, %rdi
	call	_ZNSaIcED1Ev@PLT
	movq	-1560(%rbp), %rax
	leaq	96(%rax), %rbx
	movl	$64, %edi
.LEHB155:
	call	_Znwm@PLT
.LEHE155:
	movq	%rax, %r12
	leaq	-1217(%rbp), %rax
	movq	%rax, %rdi
	call	_ZNSaIcEC1Ev@PLT
	leaq	-1217(%rbp), %rdx
	leaq	-1264(%rbp), %rax
	leaq	.LC12(%rip), %rcx
	movq	%rcx, %rsi
	movq	%rax, %rdi
.LEHB156:
	call	_ZNSt7__cxx1112basic_stringIcSt11char_traitsIcESaIcEEC1IS3_EEPKcRKS3_
.LEHE156:
	leaq	-1264(%rbp), %rax
	leaq	360+_ZL15CharacterGroups(%rip), %rdx
	movq	%rax, %rsi
	movq	%r12, %rdi
.LEHB157:
	call	_ZN19CharacterGroupTokenC1ENSt7__cxx1112basic_stringIcSt11char_traitsIcESaIcEEER14CharacterGroup
	movq	%r12, %rsi
	movq	%rbx, %rdi
	call	_ZNSt10shared_ptrI19CharacterGroupTokenEC1IS0_vEEPT_
.LEHE157:
	leaq	-1264(%rbp), %rax
	movq	%rax, %rdi
	call	_ZNSt7__cxx1112basic_stringIcSt11char_traitsIcESaIcEED1Ev@PLT
	leaq	-1217(%rbp), %rax
	movq	%rax, %rdi
	call	_ZNSaIcED1Ev@PLT
	movq	-1560(%rbp), %rax
	leaq	112(%rax), %rbx
	movl	$64, %edi
.LEHB158:
	call	_Znwm@PLT
.LEHE158:
	movq	%rax, %r12
	leaq	-1169(%rbp), %rax
	movq	%rax, %rdi
	call	_ZNSaIcEC1Ev@PLT
	leaq	-1169(%rbp), %rdx
	leaq	-1216(%rbp), %rax
	leaq	.LC13(%rip), %rcx
	movq	%rcx, %rsi
	movq	%rax, %rdi
.LEHB159:
	call	_ZNSt7__cxx1112basic_stringIcSt11char_traitsIcESaIcEEC1IS3_EEPKcRKS3_
.LEHE159:
	leaq	-1216(%rbp), %rax
	leaq	384+_ZL15CharacterGroups(%rip), %rdx
	movq	%rax, %rsi
	movq	%r12, %rdi
.LEHB160:
	call	_ZN19CharacterGroupTokenC1ENSt7__cxx1112basic_stringIcSt11char_traitsIcESaIcEEER14CharacterGroup
	movq	%r12, %rsi
	movq	%rbx, %rdi
	call	_ZNSt10shared_ptrI19CharacterGroupTokenEC1IS0_vEEPT_
.LEHE160:
	leaq	-1216(%rbp), %rax
	movq	%rax, %rdi
	call	_ZNSt7__cxx1112basic_stringIcSt11char_traitsIcESaIcEED1Ev@PLT
	leaq	-1169(%rbp), %rax
	movq	%rax, %rdi
	call	_ZNSaIcED1Ev@PLT
	movq	-1560(%rbp), %rax
	leaq	128(%rax), %rbx
	movl	$64, %edi
.LEHB161:
	call	_Znwm@PLT
.LEHE161:
	movq	%rax, %r12
	leaq	-1121(%rbp), %rax
	movq	%rax, %rdi
	call	_ZNSaIcEC1Ev@PLT
	leaq	-1121(%rbp), %rdx
	leaq	-1168(%rbp), %rax
	leaq	.LC14(%rip), %rcx
	movq	%rcx, %rsi
	movq	%rax, %rdi
.LEHB162:
	call	_ZNSt7__cxx1112basic_stringIcSt11char_traitsIcESaIcEEC1IS3_EEPKcRKS3_
.LEHE162:
	leaq	-1168(%rbp), %rax
	leaq	432+_ZL15CharacterGroups(%rip), %rdx
	movq	%rax, %rsi
	movq	%r12, %rdi
.LEHB163:
	call	_ZN19CharacterGroupTokenC1ENSt7__cxx1112basic_stringIcSt11char_traitsIcESaIcEEER14CharacterGroup
	movq	%r12, %rsi
	movq	%rbx, %rdi
	call	_ZNSt10shared_ptrI19CharacterGroupTokenEC1IS0_vEEPT_
.LEHE163:
	leaq	-1168(%rbp), %rax
	movq	%rax, %rdi
	call	_ZNSt7__cxx1112basic_stringIcSt11char_traitsIcESaIcEED1Ev@PLT
	leaq	-1121(%rbp), %rax
	movq	%rax, %rdi
	call	_ZNSaIcED1Ev@PLT
	movq	-1560(%rbp), %rax
	leaq	144(%rax), %rbx
	movl	$64, %edi
.LEHB164:
	call	_Znwm@PLT
.LEHE164:
	movq	%rax, %r12
	leaq	-1073(%rbp), %rax
	movq	%rax, %rdi
	call	_ZNSaIcEC1Ev@PLT
	leaq	-1073(%rbp), %rdx
	leaq	-1120(%rbp), %rax
	leaq	.LC15(%rip), %rcx
	movq	%rcx, %rsi
	movq	%rax, %rdi
.LEHB165:
	call	_ZNSt7__cxx1112basic_stringIcSt11char_traitsIcESaIcEEC1IS3_EEPKcRKS3_
.LEHE165:
	leaq	-1120(%rbp), %rax
	leaq	408+_ZL15CharacterGroups(%rip), %rdx
	movq	%rax, %rsi
	movq	%r12, %rdi
.LEHB166:
	call	_ZN19CharacterGroupTokenC1ENSt7__cxx1112basic_stringIcSt11char_traitsIcESaIcEEER14CharacterGroup
	movq	%r12, %rsi
	movq	%rbx, %rdi
	call	_ZNSt10shared_ptrI19CharacterGroupTokenEC1IS0_vEEPT_
.LEHE166:
	leaq	-1120(%rbp), %rax
	movq	%rax, %rdi
	call	_ZNSt7__cxx1112basic_stringIcSt11char_traitsIcESaIcEED1Ev@PLT
	leaq	-1073(%rbp), %rax
	movq	%rax, %rdi
	call	_ZNSaIcED1Ev@PLT
	movq	-1560(%rbp), %rax
	leaq	160(%rax), %rbx
	movl	$64, %edi
.LEHB167:
	call	_Znwm@PLT
.LEHE167:
	movq	%rax, %r12
	leaq	-1025(%rbp), %rax
	movq	%rax, %rdi
	call	_ZNSaIcEC1Ev@PLT
	leaq	-1025(%rbp), %rdx
	leaq	-1072(%rbp), %rax
	leaq	.LC16(%rip), %rcx
	movq	%rcx, %rsi
	movq	%rax, %rdi
.LEHB168:
	call	_ZNSt7__cxx1112basic_stringIcSt11char_traitsIcESaIcEEC1IS3_EEPKcRKS3_
.LEHE168:
	leaq	-1072(%rbp), %rax
	leaq	480+_ZL15CharacterGroups(%rip), %rdx
	movq	%rax, %rsi
	movq	%r12, %rdi
.LEHB169:
	call	_ZN19CharacterGroupTokenC1ENSt7__cxx1112basic_stringIcSt11char_traitsIcESaIcEEER14CharacterGroup
	movq	%r12, %rsi
	movq	%rbx, %rdi
	call	_ZNSt10shared_ptrI19CharacterGroupTokenEC1IS0_vEEPT_
.LEHE169:
	leaq	-1072(%rbp), %rax
	movq	%rax, %rdi
	call	_ZNSt7__cxx1112basic_stringIcSt11char_traitsIcESaIcEED1Ev@PLT
	leaq	-1025(%rbp), %rax
	movq	%rax, %rdi
	call	_ZNSaIcED1Ev@PLT
	movq	-1560(%rbp), %rax
	leaq	176(%rax), %rbx
	movl	$64, %edi
.LEHB170:
	call	_Znwm@PLT
.LEHE170:
	movq	%rax, %r12
	leaq	-977(%rbp), %rax
	movq	%rax, %rdi
	call	_ZNSaIcEC1Ev@PLT
	leaq	-977(%rbp), %rdx
	leaq	-1024(%rbp), %rax
	leaq	.LC17(%rip), %rcx
	movq	%rcx, %rsi
	movq	%rax, %rdi
.LEHB171:
	call	_ZNSt7__cxx1112basic_stringIcSt11char_traitsIcESaIcEEC1IS3_EEPKcRKS3_
.LEHE171:
	leaq	-1024(%rbp), %rax
	leaq	456+_ZL15CharacterGroups(%rip), %rdx
	movq	%rax, %rsi
	movq	%r12, %rdi
.LEHB172:
	call	_ZN19CharacterGroupTokenC1ENSt7__cxx1112basic_stringIcSt11char_traitsIcESaIcEEER14CharacterGroup
	movq	%r12, %rsi
	movq	%rbx, %rdi
	call	_ZNSt10shared_ptrI19CharacterGroupTokenEC1IS0_vEEPT_
.LEHE172:
	leaq	-1024(%rbp), %rax
	movq	%rax, %rdi
	call	_ZNSt7__cxx1112basic_stringIcSt11char_traitsIcESaIcEED1Ev@PLT
	leaq	-977(%rbp), %rax
	movq	%rax, %rdi
	call	_ZNSaIcED1Ev@PLT
	movq	-1560(%rbp), %rax
	leaq	192(%rax), %rbx
	movl	$64, %edi
.LEHB173:
	call	_Znwm@PLT
.LEHE173:
	movq	%rax, %r12
	leaq	-929(%rbp), %rax
	movq	%rax, %rdi
	call	_ZNSaIcEC1Ev@PLT
	leaq	-929(%rbp), %rdx
	leaq	-976(%rbp), %rax
	leaq	.LC18(%rip), %rcx
	movq	%rcx, %rsi
	movq	%rax, %rdi
.LEHB174:
	call	_ZNSt7__cxx1112basic_stringIcSt11char_traitsIcESaIcEEC1IS3_EEPKcRKS3_
.LEHE174:
	leaq	-976(%rbp), %rax
	leaq	504+_ZL15CharacterGroups(%rip), %rdx
	movq	%rax, %rsi
	movq	%r12, %rdi
.LEHB175:
	call	_ZN19CharacterGroupTokenC1ENSt7__cxx1112basic_stringIcSt11char_traitsIcESaIcEEER14CharacterGroup
	movq	%r12, %rsi
	movq	%rbx, %rdi
	call	_ZNSt10shared_ptrI19CharacterGroupTokenEC1IS0_vEEPT_
.LEHE175:
	leaq	-976(%rbp), %rax
	movq	%rax, %rdi
	call	_ZNSt7__cxx1112basic_stringIcSt11char_traitsIcESaIcEED1Ev@PLT
	leaq	-929(%rbp), %rax
	movq	%rax, %rdi
	call	_ZNSaIcED1Ev@PLT
	movq	-1560(%rbp), %rax
	leaq	208(%rax), %rbx
	movl	$64, %edi
.LEHB176:
	call	_Znwm@PLT
.LEHE176:
	movq	%rax, %r12
	leaq	-881(%rbp), %rax
	movq	%rax, %rdi
	call	_ZNSaIcEC1Ev@PLT
	leaq	-881(%rbp), %rdx
	leaq	-928(%rbp), %rax
	leaq	.LC19(%rip), %rcx
	movq	%rcx, %rsi
	movq	%rax, %rdi
.LEHB177:
	call	_ZNSt7__cxx1112basic_stringIcSt11char_traitsIcESaIcEEC1IS3_EEPKcRKS3_
.LEHE177:
	leaq	-928(%rbp), %rax
	leaq	528+_ZL15CharacterGroups(%rip), %rdx
	movq	%rax, %rsi
	movq	%r12, %rdi
.LEHB178:
	call	_ZN19CharacterGroupTokenC1ENSt7__cxx1112basic_stringIcSt11char_traitsIcESaIcEEER14CharacterGroup
	movq	%r12, %rsi
	movq	%rbx, %rdi
	call	_ZNSt10shared_ptrI19CharacterGroupTokenEC1IS0_vEEPT_
.LEHE178:
	leaq	-928(%rbp), %rax
	movq	%rax, %rdi
	call	_ZNSt7__cxx1112basic_stringIcSt11char_traitsIcESaIcEED1Ev@PLT
	leaq	-881(%rbp), %rax
	movq	%rax, %rdi
	call	_ZNSaIcED1Ev@PLT
	movq	-1560(%rbp), %rax
	leaq	224(%rax), %rbx
	movl	$64, %edi
.LEHB179:
	call	_Znwm@PLT
.LEHE179:
	movq	%rax, %r12
	leaq	-833(%rbp), %rax
	movq	%rax, %rdi
	call	_ZNSaIcEC1Ev@PLT
	leaq	-833(%rbp), %rdx
	leaq	-880(%rbp), %rax
	leaq	.LC20(%rip), %rcx
	movq	%rcx, %rsi
	movq	%rax, %rdi
.LEHB180:
	call	_ZNSt7__cxx1112basic_stringIcSt11char_traitsIcESaIcEEC1IS3_EEPKcRKS3_
.LEHE180:
	leaq	-880(%rbp), %rax
	leaq	552+_ZL15CharacterGroups(%rip), %rdx
	movq	%rax, %rsi
	movq	%r12, %rdi
.LEHB181:
	call	_ZN19CharacterGroupTokenC1ENSt7__cxx1112basic_stringIcSt11char_traitsIcESaIcEEER14CharacterGroup
	movq	%r12, %rsi
	movq	%rbx, %rdi
	call	_ZNSt10shared_ptrI19CharacterGroupTokenEC1IS0_vEEPT_
.LEHE181:
	leaq	-880(%rbp), %rax
	movq	%rax, %rdi
	call	_ZNSt7__cxx1112basic_stringIcSt11char_traitsIcESaIcEED1Ev@PLT
	leaq	-833(%rbp), %rax
	movq	%rax, %rdi
	call	_ZNSaIcED1Ev@PLT
	movq	-1560(%rbp), %rax
	leaq	240(%rax), %rbx
	movl	$64, %edi
.LEHB182:
	call	_Znwm@PLT
.LEHE182:
	movq	%rax, %r12
	leaq	-785(%rbp), %rax
	movq	%rax, %rdi
	call	_ZNSaIcEC1Ev@PLT
	leaq	-785(%rbp), %rdx
	leaq	-832(%rbp), %rax
	leaq	.LC21(%rip), %rcx
	movq	%rcx, %rsi
	movq	%rax, %rdi
.LEHB183:
	call	_ZNSt7__cxx1112basic_stringIcSt11char_traitsIcESaIcEEC1IS3_EEPKcRKS3_
.LEHE183:
	leaq	-832(%rbp), %rax
	leaq	576+_ZL15CharacterGroups(%rip), %rdx
	movq	%rax, %rsi
	movq	%r12, %rdi
.LEHB184:
	call	_ZN19CharacterGroupTokenC1ENSt7__cxx1112basic_stringIcSt11char_traitsIcESaIcEEER14CharacterGroup
	movq	%r12, %rsi
	movq	%rbx, %rdi
	call	_ZNSt10shared_ptrI19CharacterGroupTokenEC1IS0_vEEPT_
.LEHE184:
	leaq	-832(%rbp), %rax
	movq	%rax, %rdi
	call	_ZNSt7__cxx1112basic_stringIcSt11char_traitsIcESaIcEED1Ev@PLT
	leaq	-785(%rbp), %rax
	movq	%rax, %rdi
	call	_ZNSaIcED1Ev@PLT
	movq	-1560(%rbp), %rax
	leaq	256(%rax), %rbx
	movl	$64, %edi
.LEHB185:
	call	_Znwm@PLT
.LEHE185:
	movq	%rax, %r12
	leaq	-737(%rbp), %rax
	movq	%rax, %rdi
	call	_ZNSaIcEC1Ev@PLT
	leaq	-737(%rbp), %rdx
	leaq	-784(%rbp), %rax
	leaq	.LC22(%rip), %rcx
	movq	%rcx, %rsi
	movq	%rax, %rdi
.LEHB186:
	call	_ZNSt7__cxx1112basic_stringIcSt11char_traitsIcESaIcEEC1IS3_EEPKcRKS3_
.LEHE186:
	leaq	-784(%rbp), %rax
	leaq	600+_ZL15CharacterGroups(%rip), %rdx
	movq	%rax, %rsi
	movq	%r12, %rdi
.LEHB187:
	call	_ZN19CharacterGroupTokenC1ENSt7__cxx1112basic_stringIcSt11char_traitsIcESaIcEEER14CharacterGroup
	movq	%r12, %rsi
	movq	%rbx, %rdi
	call	_ZNSt10shared_ptrI19CharacterGroupTokenEC1IS0_vEEPT_
.LEHE187:
	leaq	-784(%rbp), %rax
	movq	%rax, %rdi
	call	_ZNSt7__cxx1112basic_stringIcSt11char_traitsIcESaIcEED1Ev@PLT
	leaq	-737(%rbp), %rax
	movq	%rax, %rdi
	call	_ZNSaIcED1Ev@PLT
	movq	-1560(%rbp), %rax
	leaq	272(%rax), %rbx
	movl	$64, %edi
.LEHB188:
	call	_Znwm@PLT
.LEHE188:
	movq	%rax, %r12
	leaq	-689(%rbp), %rax
	movq	%rax, %rdi
	call	_ZNSaIcEC1Ev@PLT
	leaq	-689(%rbp), %rdx
	leaq	-736(%rbp), %rax
	leaq	.LC23(%rip), %rcx
	movq	%rcx, %rsi
	movq	%rax, %rdi
.LEHB189:
	call	_ZNSt7__cxx1112basic_stringIcSt11char_traitsIcESaIcEEC1IS3_EEPKcRKS3_
.LEHE189:
	leaq	-736(%rbp), %rax
	leaq	624+_ZL15CharacterGroups(%rip), %rdx
	movq	%rax, %rsi
	movq	%r12, %rdi
.LEHB190:
	call	_ZN19CharacterGroupTokenC1ENSt7__cxx1112basic_stringIcSt11char_traitsIcESaIcEEER14CharacterGroup
	movq	%r12, %rsi
	movq	%rbx, %rdi
	call	_ZNSt10shared_ptrI19CharacterGroupTokenEC1IS0_vEEPT_
.LEHE190:
	leaq	-736(%rbp), %rax
	movq	%rax, %rdi
	call	_ZNSt7__cxx1112basic_stringIcSt11char_traitsIcESaIcEED1Ev@PLT
	leaq	-689(%rbp), %rax
	movq	%rax, %rdi
	call	_ZNSaIcED1Ev@PLT
	movq	-1560(%rbp), %rax
	leaq	288(%rax), %rbx
	movl	$64, %edi
.LEHB191:
	call	_Znwm@PLT
.LEHE191:
	movq	%rax, %r12
	leaq	-641(%rbp), %rax
	movq	%rax, %rdi
	call	_ZNSaIcEC1Ev@PLT
	leaq	-641(%rbp), %rdx
	leaq	-688(%rbp), %rax
	leaq	.LC24(%rip), %rcx
	movq	%rcx, %rsi
	movq	%rax, %rdi
.LEHB192:
	call	_ZNSt7__cxx1112basic_stringIcSt11char_traitsIcESaIcEEC1IS3_EEPKcRKS3_
.LEHE192:
	leaq	-688(%rbp), %rax
	leaq	648+_ZL15CharacterGroups(%rip), %rdx
	movq	%rax, %rsi
	movq	%r12, %rdi
.LEHB193:
	call	_ZN19CharacterGroupTokenC1ENSt7__cxx1112basic_stringIcSt11char_traitsIcESaIcEEER14CharacterGroup
	movq	%r12, %rsi
	movq	%rbx, %rdi
	call	_ZNSt10shared_ptrI19CharacterGroupTokenEC1IS0_vEEPT_
.LEHE193:
	leaq	-688(%rbp), %rax
	movq	%rax, %rdi
	call	_ZNSt7__cxx1112basic_stringIcSt11char_traitsIcESaIcEED1Ev@PLT
	leaq	-641(%rbp), %rax
	movq	%rax, %rdi
	call	_ZNSaIcED1Ev@PLT
	movq	-1560(%rbp), %rax
	leaq	304(%rax), %rbx
	movl	$64, %edi
.LEHB194:
	call	_Znwm@PLT
.LEHE194:
	movq	%rax, %r12
	leaq	-593(%rbp), %rax
	movq	%rax, %rdi
	call	_ZNSaIcEC1Ev@PLT
	leaq	-593(%rbp), %rdx
	leaq	-640(%rbp), %rax
	leaq	.LC25(%rip), %rcx
	movq	%rcx, %rsi
	movq	%rax, %rdi
.LEHB195:
	call	_ZNSt7__cxx1112basic_stringIcSt11char_traitsIcESaIcEEC1IS3_EEPKcRKS3_
.LEHE195:
	leaq	-640(%rbp), %rax
	leaq	672+_ZL15CharacterGroups(%rip), %rdx
	movq	%rax, %rsi
	movq	%r12, %rdi
.LEHB196:
	call	_ZN19CharacterGroupTokenC1ENSt7__cxx1112basic_stringIcSt11char_traitsIcESaIcEEER14CharacterGroup
	movq	%r12, %rsi
	movq	%rbx, %rdi
	call	_ZNSt10shared_ptrI19CharacterGroupTokenEC1IS0_vEEPT_
.LEHE196:
	leaq	-640(%rbp), %rax
	movq	%rax, %rdi
	call	_ZNSt7__cxx1112basic_stringIcSt11char_traitsIcESaIcEED1Ev@PLT
	leaq	-593(%rbp), %rax
	movq	%rax, %rdi
	call	_ZNSaIcED1Ev@PLT
	movq	-1560(%rbp), %rax
	leaq	320(%rax), %rbx
	movl	$64, %edi
.LEHB197:
	call	_Znwm@PLT
.LEHE197:
	movq	%rax, %r12
	leaq	-545(%rbp), %rax
	movq	%rax, %rdi
	call	_ZNSaIcEC1Ev@PLT
	leaq	-545(%rbp), %rdx
	leaq	-592(%rbp), %rax
	leaq	.LC26(%rip), %rcx
	movq	%rcx, %rsi
	movq	%rax, %rdi
.LEHB198:
	call	_ZNSt7__cxx1112basic_stringIcSt11char_traitsIcESaIcEEC1IS3_EEPKcRKS3_
.LEHE198:
	leaq	-592(%rbp), %rax
	leaq	696+_ZL15CharacterGroups(%rip), %rdx
	movq	%rax, %rsi
	movq	%r12, %rdi
.LEHB199:
	call	_ZN19CharacterGroupTokenC1ENSt7__cxx1112basic_stringIcSt11char_traitsIcESaIcEEER14CharacterGroup
	movq	%r12, %rsi
	movq	%rbx, %rdi
	call	_ZNSt10shared_ptrI19CharacterGroupTokenEC1IS0_vEEPT_
.LEHE199:
	leaq	-592(%rbp), %rax
	movq	%rax, %rdi
	call	_ZNSt7__cxx1112basic_stringIcSt11char_traitsIcESaIcEED1Ev@PLT
	leaq	-545(%rbp), %rax
	movq	%rax, %rdi
	call	_ZNSaIcED1Ev@PLT
	movq	-1560(%rbp), %rax
	leaq	336(%rax), %rbx
	movl	$64, %edi
.LEHB200:
	call	_Znwm@PLT
.LEHE200:
	movq	%rax, %r12
	leaq	-497(%rbp), %rax
	movq	%rax, %rdi
	call	_ZNSaIcEC1Ev@PLT
	leaq	-497(%rbp), %rdx
	leaq	-544(%rbp), %rax
	leaq	.LC27(%rip), %rcx
	movq	%rcx, %rsi
	movq	%rax, %rdi
.LEHB201:
	call	_ZNSt7__cxx1112basic_stringIcSt11char_traitsIcESaIcEEC1IS3_EEPKcRKS3_
.LEHE201:
	leaq	-544(%rbp), %rax
	leaq	720+_ZL15CharacterGroups(%rip), %rdx
	movq	%rax, %rsi
	movq	%r12, %rdi
.LEHB202:
	call	_ZN19CharacterGroupTokenC1ENSt7__cxx1112basic_stringIcSt11char_traitsIcESaIcEEER14CharacterGroup
	movq	%r12, %rsi
	movq	%rbx, %rdi
	call	_ZNSt10shared_ptrI19CharacterGroupTokenEC1IS0_vEEPT_
.LEHE202:
	leaq	-544(%rbp), %rax
	movq	%rax, %rdi
	call	_ZNSt7__cxx1112basic_stringIcSt11char_traitsIcESaIcEED1Ev@PLT
	leaq	-497(%rbp), %rax
	movq	%rax, %rdi
	call	_ZNSaIcED1Ev@PLT
	movq	-1560(%rbp), %rax
	leaq	352(%rax), %rbx
	movl	$64, %edi
.LEHB203:
	call	_Znwm@PLT
.LEHE203:
	movq	%rax, %r12
	leaq	-449(%rbp), %rax
	movq	%rax, %rdi
	call	_ZNSaIcEC1Ev@PLT
	leaq	-449(%rbp), %rdx
	leaq	-496(%rbp), %rax
	leaq	.LC28(%rip), %rcx
	movq	%rcx, %rsi
	movq	%rax, %rdi
.LEHB204:
	call	_ZNSt7__cxx1112basic_stringIcSt11char_traitsIcESaIcEEC1IS3_EEPKcRKS3_
.LEHE204:
	leaq	-496(%rbp), %rax
	leaq	744+_ZL15CharacterGroups(%rip), %rdx
	movq	%rax, %rsi
	movq	%r12, %rdi
.LEHB205:
	call	_ZN19CharacterGroupTokenC1ENSt7__cxx1112basic_stringIcSt11char_traitsIcESaIcEEER14CharacterGroup
	movq	%r12, %rsi
	movq	%rbx, %rdi
	call	_ZNSt10shared_ptrI19CharacterGroupTokenEC1IS0_vEEPT_
.LEHE205:
	leaq	-496(%rbp), %rax
	movq	%rax, %rdi
	call	_ZNSt7__cxx1112basic_stringIcSt11char_traitsIcESaIcEED1Ev@PLT
	leaq	-449(%rbp), %rax
	movq	%rax, %rdi
	call	_ZNSaIcED1Ev@PLT
	movq	-1560(%rbp), %rax
	leaq	368(%rax), %rbx
	movl	$64, %edi
.LEHB206:
	call	_Znwm@PLT
.LEHE206:
	movq	%rax, %r12
	leaq	-401(%rbp), %rax
	movq	%rax, %rdi
	call	_ZNSaIcEC1Ev@PLT
	leaq	-401(%rbp), %rdx
	leaq	-448(%rbp), %rax
	leaq	.LC29(%rip), %rcx
	movq	%rcx, %rsi
	movq	%rax, %rdi
.LEHB207:
	call	_ZNSt7__cxx1112basic_stringIcSt11char_traitsIcESaIcEEC1IS3_EEPKcRKS3_
.LEHE207:
	leaq	-448(%rbp), %rax
	leaq	768+_ZL15CharacterGroups(%rip), %rdx
	movq	%rax, %rsi
	movq	%r12, %rdi
.LEHB208:
	call	_ZN19CharacterGroupTokenC1ENSt7__cxx1112basic_stringIcSt11char_traitsIcESaIcEEER14CharacterGroup
	movq	%r12, %rsi
	movq	%rbx, %rdi
	call	_ZNSt10shared_ptrI19CharacterGroupTokenEC1IS0_vEEPT_
.LEHE208:
	leaq	-448(%rbp), %rax
	movq	%rax, %rdi
	call	_ZNSt7__cxx1112basic_stringIcSt11char_traitsIcESaIcEED1Ev@PLT
	leaq	-401(%rbp), %rax
	movq	%rax, %rdi
	call	_ZNSaIcED1Ev@PLT
	movq	-1560(%rbp), %rax
	leaq	384(%rax), %rbx
	movl	$64, %edi
.LEHB209:
	call	_Znwm@PLT
.LEHE209:
	movq	%rax, %r12
	leaq	-353(%rbp), %rax
	movq	%rax, %rdi
	call	_ZNSaIcEC1Ev@PLT
	leaq	-353(%rbp), %rdx
	leaq	-400(%rbp), %rax
	leaq	.LC30(%rip), %rcx
	movq	%rcx, %rsi
	movq	%rax, %rdi
.LEHB210:
	call	_ZNSt7__cxx1112basic_stringIcSt11char_traitsIcESaIcEEC1IS3_EEPKcRKS3_
.LEHE210:
	leaq	-400(%rbp), %rax
	leaq	792+_ZL15CharacterGroups(%rip), %rdx
	movq	%rax, %rsi
	movq	%r12, %rdi
.LEHB211:
	call	_ZN19CharacterGroupTokenC1ENSt7__cxx1112basic_stringIcSt11char_traitsIcESaIcEEER14CharacterGroup
	movq	%r12, %rsi
	movq	%rbx, %rdi
	call	_ZNSt10shared_ptrI19CharacterGroupTokenEC1IS0_vEEPT_
.LEHE211:
	leaq	-400(%rbp), %rax
	movq	%rax, %rdi
	call	_ZNSt7__cxx1112basic_stringIcSt11char_traitsIcESaIcEED1Ev@PLT
	leaq	-353(%rbp), %rax
	movq	%rax, %rdi
	call	_ZNSaIcED1Ev@PLT
	movq	-1560(%rbp), %rax
	leaq	400(%rax), %rbx
	movl	$64, %edi
.LEHB212:
	call	_Znwm@PLT
.LEHE212:
	movq	%rax, %r12
	leaq	-305(%rbp), %rax
	movq	%rax, %rdi
	call	_ZNSaIcEC1Ev@PLT
	leaq	-305(%rbp), %rdx
	leaq	-352(%rbp), %rax
	leaq	.LC31(%rip), %rcx
	movq	%rcx, %rsi
	movq	%rax, %rdi
.LEHB213:
	call	_ZNSt7__cxx1112basic_stringIcSt11char_traitsIcESaIcEEC1IS3_EEPKcRKS3_
.LEHE213:
	leaq	-352(%rbp), %rax
	leaq	816+_ZL15CharacterGroups(%rip), %rdx
	movq	%rax, %rsi
	movq	%r12, %rdi
.LEHB214:
	call	_ZN19CharacterGroupTokenC1ENSt7__cxx1112basic_stringIcSt11char_traitsIcESaIcEEER14CharacterGroup
	movq	%r12, %rsi
	movq	%rbx, %rdi
	call	_ZNSt10shared_ptrI19CharacterGroupTokenEC1IS0_vEEPT_
.LEHE214:
	leaq	-352(%rbp), %rax
	movq	%rax, %rdi
	call	_ZNSt7__cxx1112basic_stringIcSt11char_traitsIcESaIcEED1Ev@PLT
	leaq	-305(%rbp), %rax
	movq	%rax, %rdi
	call	_ZNSaIcED1Ev@PLT
	movq	-1560(%rbp), %rax
	leaq	416(%rax), %rbx
	movl	$64, %edi
.LEHB215:
	call	_Znwm@PLT
.LEHE215:
	movq	%rax, %r12
	leaq	-257(%rbp), %rax
	movq	%rax, %rdi
	call	_ZNSaIcEC1Ev@PLT
	leaq	-257(%rbp), %rdx
	leaq	-304(%rbp), %rax
	leaq	.LC32(%rip), %rcx
	movq	%rcx, %rsi
	movq	%rax, %rdi
.LEHB216:
	call	_ZNSt7__cxx1112basic_stringIcSt11char_traitsIcESaIcEEC1IS3_EEPKcRKS3_
.LEHE216:
	leaq	-304(%rbp), %rax
	leaq	840+_ZL15CharacterGroups(%rip), %rdx
	movq	%rax, %rsi
	movq	%r12, %rdi
.LEHB217:
	call	_ZN19CharacterGroupTokenC1ENSt7__cxx1112basic_stringIcSt11char_traitsIcESaIcEEER14CharacterGroup
	movq	%r12, %rsi
	movq	%rbx, %rdi
	call	_ZNSt10shared_ptrI19CharacterGroupTokenEC1IS0_vEEPT_
.LEHE217:
	leaq	-304(%rbp), %rax
	movq	%rax, %rdi
	call	_ZNSt7__cxx1112basic_stringIcSt11char_traitsIcESaIcEED1Ev@PLT
	leaq	-257(%rbp), %rax
	movq	%rax, %rdi
	call	_ZNSaIcED1Ev@PLT
	movq	-1560(%rbp), %rax
	leaq	432(%rax), %rbx
	movl	$64, %edi
.LEHB218:
	call	_Znwm@PLT
.LEHE218:
	movq	%rax, %r12
	leaq	-209(%rbp), %rax
	movq	%rax, %rdi
	call	_ZNSaIcEC1Ev@PLT
	leaq	-209(%rbp), %rdx
	leaq	-256(%rbp), %rax
	leaq	.LC33(%rip), %rcx
	movq	%rcx, %rsi
	movq	%rax, %rdi
.LEHB219:
	call	_ZNSt7__cxx1112basic_stringIcSt11char_traitsIcESaIcEEC1IS3_EEPKcRKS3_
.LEHE219:
	leaq	-256(%rbp), %rax
	leaq	864+_ZL15CharacterGroups(%rip), %rdx
	movq	%rax, %rsi
	movq	%r12, %rdi
.LEHB220:
	call	_ZN19CharacterGroupTokenC1ENSt7__cxx1112basic_stringIcSt11char_traitsIcESaIcEEER14CharacterGroup
	movq	%r12, %rsi
	movq	%rbx, %rdi
	call	_ZNSt10shared_ptrI19CharacterGroupTokenEC1IS0_vEEPT_
.LEHE220:
	leaq	-256(%rbp), %rax
	movq	%rax, %rdi
	call	_ZNSt7__cxx1112basic_stringIcSt11char_traitsIcESaIcEED1Ev@PLT
	leaq	-209(%rbp), %rax
	movq	%rax, %rdi
	call	_ZNSaIcED1Ev@PLT
	movq	-1560(%rbp), %rax
	leaq	448(%rax), %rbx
	movl	$64, %edi
.LEHB221:
	call	_Znwm@PLT
.LEHE221:
	movq	%rax, %r12
	leaq	-161(%rbp), %rax
	movq	%rax, %rdi
	call	_ZNSaIcEC1Ev@PLT
	leaq	-161(%rbp), %rdx
	leaq	-208(%rbp), %rax
	leaq	.LC34(%rip), %rcx
	movq	%rcx, %rsi
	movq	%rax, %rdi
.LEHB222:
	call	_ZNSt7__cxx1112basic_stringIcSt11char_traitsIcESaIcEEC1IS3_EEPKcRKS3_
.LEHE222:
	leaq	-208(%rbp), %rax
	leaq	888+_ZL15CharacterGroups(%rip), %rdx
	movq	%rax, %rsi
	movq	%r12, %rdi
.LEHB223:
	call	_ZN19CharacterGroupTokenC1ENSt7__cxx1112basic_stringIcSt11char_traitsIcESaIcEEER14CharacterGroup
	movq	%r12, %rsi
	movq	%rbx, %rdi
	call	_ZNSt10shared_ptrI19CharacterGroupTokenEC1IS0_vEEPT_
.LEHE223:
	leaq	-208(%rbp), %rax
	movq	%rax, %rdi
	call	_ZNSt7__cxx1112basic_stringIcSt11char_traitsIcESaIcEED1Ev@PLT
	leaq	-161(%rbp), %rax
	movq	%rax, %rdi
	call	_ZNSaIcED1Ev@PLT
	movq	-1560(%rbp), %rax
	leaq	464(%rax), %rbx
	movl	$72, %edi
.LEHB224:
	call	_Znwm@PLT
.LEHE224:
	movq	%rax, %r12
	leaq	-113(%rbp), %rax
	movq	%rax, %rdi
	call	_ZNSaIcEC1Ev@PLT
	leaq	-113(%rbp), %rdx
	leaq	-160(%rbp), %rax
	leaq	.LC0(%rip), %rcx
	movq	%rcx, %rsi
	movq	%rax, %rdi
.LEHB225:
	call	_ZNSt7__cxx1112basic_stringIcSt11char_traitsIcESaIcEEC1IS3_EEPKcRKS3_
.LEHE225:
	leaq	-160(%rbp), %rax
	movq	%rax, %rsi
	movq	%r12, %rdi
.LEHB226:
	call	_ZN15IdentifierTokenC1ENSt7__cxx1112basic_stringIcSt11char_traitsIcESaIcEEE
	movq	%r12, %rsi
	movq	%rbx, %rdi
	call	_ZNSt10shared_ptrI15IdentifierTokenEC1IS0_vEEPT_
.LEHE226:
	leaq	-160(%rbp), %rax
	movq	%rax, %rdi
	call	_ZNSt7__cxx1112basic_stringIcSt11char_traitsIcESaIcEED1Ev@PLT
	leaq	-113(%rbp), %rax
	movq	%rax, %rdi
	call	_ZNSaIcED1Ev@PLT
	movq	-1560(%rbp), %rax
	leaq	480(%rax), %rbx
	movl	$72, %edi
.LEHB227:
	call	_Znwm@PLT
.LEHE227:
	movq	%rax, %r12
	leaq	-65(%rbp), %rax
	movq	%rax, %rdi
	call	_ZNSaIcEC1Ev@PLT
	leaq	-65(%rbp), %rdx
	leaq	-112(%rbp), %rax
	leaq	.LC35(%rip), %rcx
	movq	%rcx, %rsi
	movq	%rax, %rdi
.LEHB228:
	call	_ZNSt7__cxx1112basic_stringIcSt11char_traitsIcESaIcEEC1IS3_EEPKcRKS3_
.LEHE228:
	leaq	-112(%rbp), %rax
	movq	%rax, %rsi
	movq	%r12, %rdi
.LEHB229:
	call	_ZN16NumberConstTokenC1ENSt7__cxx1112basic_stringIcSt11char_traitsIcESaIcEEE
	movq	%r12, %rsi
	movq	%rbx, %rdi
	call	_ZNSt10shared_ptrI16NumberConstTokenEC1IS0_vEEPT_
.LEHE229:
	leaq	-112(%rbp), %rax
	movq	%rax, %rdi
	call	_ZNSt7__cxx1112basic_stringIcSt11char_traitsIcESaIcEED1Ev@PLT
	leaq	-65(%rbp), %rax
	movq	%rax, %rdi
	call	_ZNSaIcED1Ev@PLT
	movq	-1560(%rbp), %rax
	leaq	496(%rax), %rbx
	movl	$72, %edi
.LEHB230:
	call	_Znwm@PLT
.LEHE230:
	movq	%rax, %r12
	leaq	-17(%rbp), %rax
	movq	%rax, %rdi
	call	_ZNSaIcEC1Ev@PLT
	leaq	-17(%rbp), %rdx
	leaq	-64(%rbp), %rax
	leaq	.LC0(%rip), %rcx
	movq	%rcx, %rsi
	movq	%rax, %rdi
.LEHB231:
	call	_ZNSt7__cxx1112basic_stringIcSt11char_traitsIcESaIcEEC1IS3_EEPKcRKS3_
.LEHE231:
	leaq	-64(%rbp), %rax
	movq	%rax, %rsi
	movq	%r12, %rdi
.LEHB232:
	call	_ZN16StringConstTokenC1ENSt7__cxx1112basic_stringIcSt11char_traitsIcESaIcEEE
	movq	%r12, %rsi
	movq	%rbx, %rdi
	call	_ZNSt10shared_ptrI16StringConstTokenEC1IS0_vEEPT_
.LEHE232:
	leaq	-64(%rbp), %rax
	movq	%rax, %rdi
	call	_ZNSt7__cxx1112basic_stringIcSt11char_traitsIcESaIcEED1Ev@PLT
	leaq	-17(%rbp), %rax
	movq	%rax, %rdi
	call	_ZNSaIcED1Ev@PLT
	jmp	.L644
.L550:
	movq	%rax, %rbx
	leaq	-1552(%rbp), %rax
	movq	%rax, %rdi
	call	_ZNSt7__cxx1112basic_stringIcSt11char_traitsIcESaIcEED1Ev@PLT
	jmp	.L455
.L549:
	movq	%rax, %rbx
.L455:
	leaq	-1505(%rbp), %rax
	movq	%rax, %rdi
	call	_ZNSaIcED1Ev@PLT
	movq	%rbx, %rax
	movq	%rax, %rdi
.LEHB233:
	call	_Unwind_Resume@PLT
.L553:
	movq	%rax, %rbx
	leaq	-1504(%rbp), %rax
	movq	%rax, %rdi
	call	_ZNSt7__cxx1112basic_stringIcSt11char_traitsIcESaIcEED1Ev@PLT
	jmp	.L457
.L552:
	movq	%rax, %rbx
.L457:
	leaq	-1457(%rbp), %rax
	movq	%rax, %rdi
	call	_ZNSaIcED1Ev@PLT
	jmp	.L458
.L556:
	movq	%rax, %rbx
	leaq	-1456(%rbp), %rax
	movq	%rax, %rdi
	call	_ZNSt7__cxx1112basic_stringIcSt11char_traitsIcESaIcEED1Ev@PLT
	jmp	.L460
.L555:
	movq	%rax, %rbx
.L460:
	leaq	-1409(%rbp), %rax
	movq	%rax, %rdi
	call	_ZNSaIcED1Ev@PLT
	jmp	.L461
.L559:
	movq	%rax, %rbx
	leaq	-1408(%rbp), %rax
	movq	%rax, %rdi
	call	_ZNSt7__cxx1112basic_stringIcSt11char_traitsIcESaIcEED1Ev@PLT
	jmp	.L463
.L558:
	movq	%rax, %rbx
.L463:
	leaq	-1361(%rbp), %rax
	movq	%rax, %rdi
	call	_ZNSaIcED1Ev@PLT
	jmp	.L464
.L562:
	movq	%rax, %rbx
	leaq	-1360(%rbp), %rax
	movq	%rax, %rdi
	call	_ZNSt7__cxx1112basic_stringIcSt11char_traitsIcESaIcEED1Ev@PLT
	jmp	.L466
.L561:
	movq	%rax, %rbx
.L466:
	leaq	-1313(%rbp), %rax
	movq	%rax, %rdi
	call	_ZNSaIcED1Ev@PLT
	jmp	.L467
.L565:
	movq	%rax, %rbx
	leaq	-1312(%rbp), %rax
	movq	%rax, %rdi
	call	_ZNSt7__cxx1112basic_stringIcSt11char_traitsIcESaIcEED1Ev@PLT
	jmp	.L469
.L564:
	movq	%rax, %rbx
.L469:
	leaq	-1265(%rbp), %rax
	movq	%rax, %rdi
	call	_ZNSaIcED1Ev@PLT
	jmp	.L470
.L568:
	movq	%rax, %rbx
	leaq	-1264(%rbp), %rax
	movq	%rax, %rdi
	call	_ZNSt7__cxx1112basic_stringIcSt11char_traitsIcESaIcEED1Ev@PLT
	jmp	.L472
.L567:
	movq	%rax, %rbx
.L472:
	leaq	-1217(%rbp), %rax
	movq	%rax, %rdi
	call	_ZNSaIcED1Ev@PLT
	jmp	.L473
.L571:
	movq	%rax, %rbx
	leaq	-1216(%rbp), %rax
	movq	%rax, %rdi
	call	_ZNSt7__cxx1112basic_stringIcSt11char_traitsIcESaIcEED1Ev@PLT
	jmp	.L475
.L570:
	movq	%rax, %rbx
.L475:
	leaq	-1169(%rbp), %rax
	movq	%rax, %rdi
	call	_ZNSaIcED1Ev@PLT
	jmp	.L476
.L574:
	movq	%rax, %rbx
	leaq	-1168(%rbp), %rax
	movq	%rax, %rdi
	call	_ZNSt7__cxx1112basic_stringIcSt11char_traitsIcESaIcEED1Ev@PLT
	jmp	.L478
.L573:
	movq	%rax, %rbx
.L478:
	leaq	-1121(%rbp), %rax
	movq	%rax, %rdi
	call	_ZNSaIcED1Ev@PLT
	jmp	.L479
.L577:
	movq	%rax, %rbx
	leaq	-1120(%rbp), %rax
	movq	%rax, %rdi
	call	_ZNSt7__cxx1112basic_stringIcSt11char_traitsIcESaIcEED1Ev@PLT
	jmp	.L481
.L576:
	movq	%rax, %rbx
.L481:
	leaq	-1073(%rbp), %rax
	movq	%rax, %rdi
	call	_ZNSaIcED1Ev@PLT
	jmp	.L482
.L580:
	movq	%rax, %rbx
	leaq	-1072(%rbp), %rax
	movq	%rax, %rdi
	call	_ZNSt7__cxx1112basic_stringIcSt11char_traitsIcESaIcEED1Ev@PLT
	jmp	.L484
.L579:
	movq	%rax, %rbx
.L484:
	leaq	-1025(%rbp), %rax
	movq	%rax, %rdi
	call	_ZNSaIcED1Ev@PLT
	jmp	.L485
.L583:
	movq	%rax, %rbx
	leaq	-1024(%rbp), %rax
	movq	%rax, %rdi
	call	_ZNSt7__cxx1112basic_stringIcSt11char_traitsIcESaIcEED1Ev@PLT
	jmp	.L487
.L582:
	movq	%rax, %rbx
.L487:
	leaq	-977(%rbp), %rax
	movq	%rax, %rdi
	call	_ZNSaIcED1Ev@PLT
	jmp	.L488
.L586:
	movq	%rax, %rbx
	leaq	-976(%rbp), %rax
	movq	%rax, %rdi
	call	_ZNSt7__cxx1112basic_stringIcSt11char_traitsIcESaIcEED1Ev@PLT
	jmp	.L490
.L585:
	movq	%rax, %rbx
.L490:
	leaq	-929(%rbp), %rax
	movq	%rax, %rdi
	call	_ZNSaIcED1Ev@PLT
	jmp	.L491
.L589:
	movq	%rax, %rbx
	leaq	-928(%rbp), %rax
	movq	%rax, %rdi
	call	_ZNSt7__cxx1112basic_stringIcSt11char_traitsIcESaIcEED1Ev@PLT
	jmp	.L493
.L588:
	movq	%rax, %rbx
.L493:
	leaq	-881(%rbp), %rax
	movq	%rax, %rdi
	call	_ZNSaIcED1Ev@PLT
	jmp	.L494
.L592:
	movq	%rax, %rbx
	leaq	-880(%rbp), %rax
	movq	%rax, %rdi
	call	_ZNSt7__cxx1112basic_stringIcSt11char_traitsIcESaIcEED1Ev@PLT
	jmp	.L496
.L591:
	movq	%rax, %rbx
.L496:
	leaq	-833(%rbp), %rax
	movq	%rax, %rdi
	call	_ZNSaIcED1Ev@PLT
	jmp	.L497
.L595:
	movq	%rax, %rbx
	leaq	-832(%rbp), %rax
	movq	%rax, %rdi
	call	_ZNSt7__cxx1112basic_stringIcSt11char_traitsIcESaIcEED1Ev@PLT
	jmp	.L499
.L594:
	movq	%rax, %rbx
.L499:
	leaq	-785(%rbp), %rax
	movq	%rax, %rdi
	call	_ZNSaIcED1Ev@PLT
	jmp	.L500
.L598:
	movq	%rax, %rbx
	leaq	-784(%rbp), %rax
	movq	%rax, %rdi
	call	_ZNSt7__cxx1112basic_stringIcSt11char_traitsIcESaIcEED1Ev@PLT
	jmp	.L502
.L597:
	movq	%rax, %rbx
.L502:
	leaq	-737(%rbp), %rax
	movq	%rax, %rdi
	call	_ZNSaIcED1Ev@PLT
	jmp	.L503
.L601:
	movq	%rax, %rbx
	leaq	-736(%rbp), %rax
	movq	%rax, %rdi
	call	_ZNSt7__cxx1112basic_stringIcSt11char_traitsIcESaIcEED1Ev@PLT
	jmp	.L505
.L600:
	movq	%rax, %rbx
.L505:
	leaq	-689(%rbp), %rax
	movq	%rax, %rdi
	call	_ZNSaIcED1Ev@PLT
	jmp	.L506
.L604:
	movq	%rax, %rbx
	leaq	-688(%rbp), %rax
	movq	%rax, %rdi
	call	_ZNSt7__cxx1112basic_stringIcSt11char_traitsIcESaIcEED1Ev@PLT
	jmp	.L508
.L603:
	movq	%rax, %rbx
.L508:
	leaq	-641(%rbp), %rax
	movq	%rax, %rdi
	call	_ZNSaIcED1Ev@PLT
	jmp	.L509
.L607:
	movq	%rax, %rbx
	leaq	-640(%rbp), %rax
	movq	%rax, %rdi
	call	_ZNSt7__cxx1112basic_stringIcSt11char_traitsIcESaIcEED1Ev@PLT
	jmp	.L511
.L606:
	movq	%rax, %rbx
.L511:
	leaq	-593(%rbp), %rax
	movq	%rax, %rdi
	call	_ZNSaIcED1Ev@PLT
	jmp	.L512
.L610:
	movq	%rax, %rbx
	leaq	-592(%rbp), %rax
	movq	%rax, %rdi
	call	_ZNSt7__cxx1112basic_stringIcSt11char_traitsIcESaIcEED1Ev@PLT
	jmp	.L514
.L609:
	movq	%rax, %rbx
.L514:
	leaq	-545(%rbp), %rax
	movq	%rax, %rdi
	call	_ZNSaIcED1Ev@PLT
	jmp	.L515
.L613:
	movq	%rax, %rbx
	leaq	-544(%rbp), %rax
	movq	%rax, %rdi
	call	_ZNSt7__cxx1112basic_stringIcSt11char_traitsIcESaIcEED1Ev@PLT
	jmp	.L517
.L612:
	movq	%rax, %rbx
.L517:
	leaq	-497(%rbp), %rax
	movq	%rax, %rdi
	call	_ZNSaIcED1Ev@PLT
	jmp	.L518
.L616:
	movq	%rax, %rbx
	leaq	-496(%rbp), %rax
	movq	%rax, %rdi
	call	_ZNSt7__cxx1112basic_stringIcSt11char_traitsIcESaIcEED1Ev@PLT
	jmp	.L520
.L615:
	movq	%rax, %rbx
.L520:
	leaq	-449(%rbp), %rax
	movq	%rax, %rdi
	call	_ZNSaIcED1Ev@PLT
	jmp	.L521
.L619:
	movq	%rax, %rbx
	leaq	-448(%rbp), %rax
	movq	%rax, %rdi
	call	_ZNSt7__cxx1112basic_stringIcSt11char_traitsIcESaIcEED1Ev@PLT
	jmp	.L523
.L618:
	movq	%rax, %rbx
.L523:
	leaq	-401(%rbp), %rax
	movq	%rax, %rdi
	call	_ZNSaIcED1Ev@PLT
	jmp	.L524
.L622:
	movq	%rax, %rbx
	leaq	-400(%rbp), %rax
	movq	%rax, %rdi
	call	_ZNSt7__cxx1112basic_stringIcSt11char_traitsIcESaIcEED1Ev@PLT
	jmp	.L526
.L621:
	movq	%rax, %rbx
.L526:
	leaq	-353(%rbp), %rax
	movq	%rax, %rdi
	call	_ZNSaIcED1Ev@PLT
	jmp	.L527
.L625:
	movq	%rax, %rbx
	leaq	-352(%rbp), %rax
	movq	%rax, %rdi
	call	_ZNSt7__cxx1112basic_stringIcSt11char_traitsIcESaIcEED1Ev@PLT
	jmp	.L529
.L624:
	movq	%rax, %rbx
.L529:
	leaq	-305(%rbp), %rax
	movq	%rax, %rdi
	call	_ZNSaIcED1Ev@PLT
	jmp	.L530
.L628:
	movq	%rax, %rbx
	leaq	-304(%rbp), %rax
	movq	%rax, %rdi
	call	_ZNSt7__cxx1112basic_stringIcSt11char_traitsIcESaIcEED1Ev@PLT
	jmp	.L532
.L627:
	movq	%rax, %rbx
.L532:
	leaq	-257(%rbp), %rax
	movq	%rax, %rdi
	call	_ZNSaIcED1Ev@PLT
	jmp	.L533
.L631:
	movq	%rax, %rbx
	leaq	-256(%rbp), %rax
	movq	%rax, %rdi
	call	_ZNSt7__cxx1112basic_stringIcSt11char_traitsIcESaIcEED1Ev@PLT
	jmp	.L535
.L630:
	movq	%rax, %rbx
.L535:
	leaq	-209(%rbp), %rax
	movq	%rax, %rdi
	call	_ZNSaIcED1Ev@PLT
	jmp	.L536
.L634:
	movq	%rax, %rbx
	leaq	-208(%rbp), %rax
	movq	%rax, %rdi
	call	_ZNSt7__cxx1112basic_stringIcSt11char_traitsIcESaIcEED1Ev@PLT
	jmp	.L538
.L633:
	movq	%rax, %rbx
.L538:
	leaq	-161(%rbp), %rax
	movq	%rax, %rdi
	call	_ZNSaIcED1Ev@PLT
	jmp	.L539
.L637:
	movq	%rax, %rbx
	leaq	-160(%rbp), %rax
	movq	%rax, %rdi
	call	_ZNSt7__cxx1112basic_stringIcSt11char_traitsIcESaIcEED1Ev@PLT
	jmp	.L541
.L636:
	movq	%rax, %rbx
.L541:
	leaq	-113(%rbp), %rax
	movq	%rax, %rdi
	call	_ZNSaIcED1Ev@PLT
	jmp	.L542
.L640:
	movq	%rax, %rbx
	leaq	-112(%rbp), %rax
	movq	%rax, %rdi
	call	_ZNSt7__cxx1112basic_stringIcSt11char_traitsIcESaIcEED1Ev@PLT
	jmp	.L544
.L639:
	movq	%rax, %rbx
.L544:
	leaq	-65(%rbp), %rax
	movq	%rax, %rdi
	call	_ZNSaIcED1Ev@PLT
	jmp	.L545
.L643:
	movq	%rax, %rbx
	leaq	-64(%rbp), %rax
	movq	%rax, %rdi
	call	_ZNSt7__cxx1112basic_stringIcSt11char_traitsIcESaIcEED1Ev@PLT
	jmp	.L547
.L642:
	movq	%rax, %rbx
.L547:
	leaq	-17(%rbp), %rax
	movq	%rax, %rdi
	call	_ZNSaIcED1Ev@PLT
	jmp	.L548
.L641:
	movq	%rax, %rbx
.L548:
	movq	-1560(%rbp), %rax
	addq	$480, %rax
	movq	%rax, %rdi
	call	_ZNSt10shared_ptrI16NumberConstTokenED1Ev
	jmp	.L545
.L638:
	movq	%rax, %rbx
.L545:
	movq	-1560(%rbp), %rax
	addq	$464, %rax
	movq	%rax, %rdi
	call	_ZNSt10shared_ptrI15IdentifierTokenED1Ev
	jmp	.L542
.L635:
	movq	%rax, %rbx
.L542:
	movq	-1560(%rbp), %rax
	addq	$448, %rax
	movq	%rax, %rdi
	call	_ZNSt10shared_ptrI19CharacterGroupTokenED1Ev
	jmp	.L539
.L632:
	movq	%rax, %rbx
.L539:
	movq	-1560(%rbp), %rax
	addq	$432, %rax
	movq	%rax, %rdi
	call	_ZNSt10shared_ptrI19CharacterGroupTokenED1Ev
	jmp	.L536
.L629:
	movq	%rax, %rbx
.L536:
	movq	-1560(%rbp), %rax
	addq	$416, %rax
	movq	%rax, %rdi
	call	_ZNSt10shared_ptrI19CharacterGroupTokenED1Ev
	jmp	.L533
.L626:
	movq	%rax, %rbx
.L533:
	movq	-1560(%rbp), %rax
	addq	$400, %rax
	movq	%rax, %rdi
	call	_ZNSt10shared_ptrI19CharacterGroupTokenED1Ev
	jmp	.L530
.L623:
	movq	%rax, %rbx
.L530:
	movq	-1560(%rbp), %rax
	addq	$384, %rax
	movq	%rax, %rdi
	call	_ZNSt10shared_ptrI19CharacterGroupTokenED1Ev
	jmp	.L527
.L620:
	movq	%rax, %rbx
.L527:
	movq	-1560(%rbp), %rax
	addq	$368, %rax
	movq	%rax, %rdi
	call	_ZNSt10shared_ptrI19CharacterGroupTokenED1Ev
	jmp	.L524
.L617:
	movq	%rax, %rbx
.L524:
	movq	-1560(%rbp), %rax
	addq	$352, %rax
	movq	%rax, %rdi
	call	_ZNSt10shared_ptrI19CharacterGroupTokenED1Ev
	jmp	.L521
.L614:
	movq	%rax, %rbx
.L521:
	movq	-1560(%rbp), %rax
	addq	$336, %rax
	movq	%rax, %rdi
	call	_ZNSt10shared_ptrI19CharacterGroupTokenED1Ev
	jmp	.L518
.L611:
	movq	%rax, %rbx
.L518:
	movq	-1560(%rbp), %rax
	addq	$320, %rax
	movq	%rax, %rdi
	call	_ZNSt10shared_ptrI19CharacterGroupTokenED1Ev
	jmp	.L515
.L608:
	movq	%rax, %rbx
.L515:
	movq	-1560(%rbp), %rax
	addq	$304, %rax
	movq	%rax, %rdi
	call	_ZNSt10shared_ptrI19CharacterGroupTokenED1Ev
	jmp	.L512
.L605:
	movq	%rax, %rbx
.L512:
	movq	-1560(%rbp), %rax
	addq	$288, %rax
	movq	%rax, %rdi
	call	_ZNSt10shared_ptrI19CharacterGroupTokenED1Ev
	jmp	.L509
.L602:
	movq	%rax, %rbx
.L509:
	movq	-1560(%rbp), %rax
	addq	$272, %rax
	movq	%rax, %rdi
	call	_ZNSt10shared_ptrI19CharacterGroupTokenED1Ev
	jmp	.L506
.L599:
	movq	%rax, %rbx
.L506:
	movq	-1560(%rbp), %rax
	addq	$256, %rax
	movq	%rax, %rdi
	call	_ZNSt10shared_ptrI19CharacterGroupTokenED1Ev
	jmp	.L503
.L596:
	movq	%rax, %rbx
.L503:
	movq	-1560(%rbp), %rax
	addq	$240, %rax
	movq	%rax, %rdi
	call	_ZNSt10shared_ptrI19CharacterGroupTokenED1Ev
	jmp	.L500
.L593:
	movq	%rax, %rbx
.L500:
	movq	-1560(%rbp), %rax
	addq	$224, %rax
	movq	%rax, %rdi
	call	_ZNSt10shared_ptrI19CharacterGroupTokenED1Ev
	jmp	.L497
.L590:
	movq	%rax, %rbx
.L497:
	movq	-1560(%rbp), %rax
	addq	$208, %rax
	movq	%rax, %rdi
	call	_ZNSt10shared_ptrI19CharacterGroupTokenED1Ev
	jmp	.L494
.L587:
	movq	%rax, %rbx
.L494:
	movq	-1560(%rbp), %rax
	addq	$192, %rax
	movq	%rax, %rdi
	call	_ZNSt10shared_ptrI19CharacterGroupTokenED1Ev
	jmp	.L491
.L584:
	movq	%rax, %rbx
.L491:
	movq	-1560(%rbp), %rax
	addq	$176, %rax
	movq	%rax, %rdi
	call	_ZNSt10shared_ptrI19CharacterGroupTokenED1Ev
	jmp	.L488
.L581:
	movq	%rax, %rbx
.L488:
	movq	-1560(%rbp), %rax
	addq	$160, %rax
	movq	%rax, %rdi
	call	_ZNSt10shared_ptrI19CharacterGroupTokenED1Ev
	jmp	.L485
.L578:
	movq	%rax, %rbx
.L485:
	movq	-1560(%rbp), %rax
	addq	$144, %rax
	movq	%rax, %rdi
	call	_ZNSt10shared_ptrI19CharacterGroupTokenED1Ev
	jmp	.L482
.L575:
	movq	%rax, %rbx
.L482:
	movq	-1560(%rbp), %rax
	subq	$-128, %rax
	movq	%rax, %rdi
	call	_ZNSt10shared_ptrI19CharacterGroupTokenED1Ev
	jmp	.L479
.L572:
	movq	%rax, %rbx
.L479:
	movq	-1560(%rbp), %rax
	addq	$112, %rax
	movq	%rax, %rdi
	call	_ZNSt10shared_ptrI19CharacterGroupTokenED1Ev
	jmp	.L476
.L569:
	movq	%rax, %rbx
.L476:
	movq	-1560(%rbp), %rax
	addq	$96, %rax
	movq	%rax, %rdi
	call	_ZNSt10shared_ptrI19CharacterGroupTokenED1Ev
	jmp	.L473
.L566:
	movq	%rax, %rbx
.L473:
	movq	-1560(%rbp), %rax
	addq	$80, %rax
	movq	%rax, %rdi
	call	_ZNSt10shared_ptrI19CharacterGroupTokenED1Ev
	jmp	.L470
.L563:
	movq	%rax, %rbx
.L470:
	movq	-1560(%rbp), %rax
	addq	$64, %rax
	movq	%rax, %rdi
	call	_ZNSt10shared_ptrI19CharacterGroupTokenED1Ev
	jmp	.L467
.L560:
	movq	%rax, %rbx
.L467:
	movq	-1560(%rbp), %rax
	addq	$48, %rax
	movq	%rax, %rdi
	call	_ZNSt10shared_ptrI19CharacterGroupTokenED1Ev
	jmp	.L464
.L557:
	movq	%rax, %rbx
.L464:
	movq	-1560(%rbp), %rax
	addq	$32, %rax
	movq	%rax, %rdi
	call	_ZNSt10shared_ptrI19CharacterGroupTokenED1Ev
	jmp	.L461
.L554:
	movq	%rax, %rbx
.L461:
	movq	-1560(%rbp), %rax
	addq	$16, %rax
	movq	%rax, %rdi
	call	_ZNSt10shared_ptrI19CharacterGroupTokenED1Ev
	jmp	.L458
.L551:
	movq	%rax, %rbx
.L458:
	movq	-1560(%rbp), %rax
	movq	%rax, %rdi
	call	_ZNSt10shared_ptrI19CharacterGroupTokenED1Ev
	movq	%rbx, %rax
	movq	%rax, %rdi
	call	_Unwind_Resume@PLT
.LEHE233:
.L644:
	addq	$1552, %rsp
	popq	%rbx
	popq	%r12
	popq	%rbp
	.cfi_def_cfa 7, 8
	ret
	.cfi_endproc
.LFE3184:
	.section	.gcc_except_table
.LLSDA3184:
	.byte	0xff
	.byte	0xff
	.byte	0x1
	.uleb128 .LLSDACSE3184-.LLSDACSB3184
.LLSDACSB3184:
	.uleb128 .LEHB137-.LFB3184
	.uleb128 .LEHE137-.LEHB137
	.uleb128 0
	.uleb128 0
	.uleb128 .LEHB138-.LFB3184
	.uleb128 .LEHE138-.LEHB138
	.uleb128 .L549-.LFB3184
	.uleb128 0
	.uleb128 .LEHB139-.LFB3184
	.uleb128 .LEHE139-.LEHB139
	.uleb128 .L550-.LFB3184
	.uleb128 0
	.uleb128 .LEHB140-.LFB3184
	.uleb128 .LEHE140-.LEHB140
	.uleb128 .L551-.LFB3184
	.uleb128 0
	.uleb128 .LEHB141-.LFB3184
	.uleb128 .LEHE141-.LEHB141
	.uleb128 .L552-.LFB3184
	.uleb128 0
	.uleb128 .LEHB142-.LFB3184
	.uleb128 .LEHE142-.LEHB142
	.uleb128 .L553-.LFB3184
	.uleb128 0
	.uleb128 .LEHB143-.LFB3184
	.uleb128 .LEHE143-.LEHB143
	.uleb128 .L554-.LFB3184
	.uleb128 0
	.uleb128 .LEHB144-.LFB3184
	.uleb128 .LEHE144-.LEHB144
	.uleb128 .L555-.LFB3184
	.uleb128 0
	.uleb128 .LEHB145-.LFB3184
	.uleb128 .LEHE145-.LEHB145
	.uleb128 .L556-.LFB3184
	.uleb128 0
	.uleb128 .LEHB146-.LFB3184
	.uleb128 .LEHE146-.LEHB146
	.uleb128 .L557-.LFB3184
	.uleb128 0
	.uleb128 .LEHB147-.LFB3184
	.uleb128 .LEHE147-.LEHB147
	.uleb128 .L558-.LFB3184
	.uleb128 0
	.uleb128 .LEHB148-.LFB3184
	.uleb128 .LEHE148-.LEHB148
	.uleb128 .L559-.LFB3184
	.uleb128 0
	.uleb128 .LEHB149-.LFB3184
	.uleb128 .LEHE149-.LEHB149
	.uleb128 .L560-.LFB3184
	.uleb128 0
	.uleb128 .LEHB150-.LFB3184
	.uleb128 .LEHE150-.LEHB150
	.uleb128 .L561-.LFB3184
	.uleb128 0
	.uleb128 .LEHB151-.LFB3184
	.uleb128 .LEHE151-.LEHB151
	.uleb128 .L562-.LFB3184
	.uleb128 0
	.uleb128 .LEHB152-.LFB3184
	.uleb128 .LEHE152-.LEHB152
	.uleb128 .L563-.LFB3184
	.uleb128 0
	.uleb128 .LEHB153-.LFB3184
	.uleb128 .LEHE153-.LEHB153
	.uleb128 .L564-.LFB3184
	.uleb128 0
	.uleb128 .LEHB154-.LFB3184
	.uleb128 .LEHE154-.LEHB154
	.uleb128 .L565-.LFB3184
	.uleb128 0
	.uleb128 .LEHB155-.LFB3184
	.uleb128 .LEHE155-.LEHB155
	.uleb128 .L566-.LFB3184
	.uleb128 0
	.uleb128 .LEHB156-.LFB3184
	.uleb128 .LEHE156-.LEHB156
	.uleb128 .L567-.LFB3184
	.uleb128 0
	.uleb128 .LEHB157-.LFB3184
	.uleb128 .LEHE157-.LEHB157
	.uleb128 .L568-.LFB3184
	.uleb128 0
	.uleb128 .LEHB158-.LFB3184
	.uleb128 .LEHE158-.LEHB158
	.uleb128 .L569-.LFB3184
	.uleb128 0
	.uleb128 .LEHB159-.LFB3184
	.uleb128 .LEHE159-.LEHB159
	.uleb128 .L570-.LFB3184
	.uleb128 0
	.uleb128 .LEHB160-.LFB3184
	.uleb128 .LEHE160-.LEHB160
	.uleb128 .L571-.LFB3184
	.uleb128 0
	.uleb128 .LEHB161-.LFB3184
	.uleb128 .LEHE161-.LEHB161
	.uleb128 .L572-.LFB3184
	.uleb128 0
	.uleb128 .LEHB162-.LFB3184
	.uleb128 .LEHE162-.LEHB162
	.uleb128 .L573-.LFB3184
	.uleb128 0
	.uleb128 .LEHB163-.LFB3184
	.uleb128 .LEHE163-.LEHB163
	.uleb128 .L574-.LFB3184
	.uleb128 0
	.uleb128 .LEHB164-.LFB3184
	.uleb128 .LEHE164-.LEHB164
	.uleb128 .L575-.LFB3184
	.uleb128 0
	.uleb128 .LEHB165-.LFB3184
	.uleb128 .LEHE165-.LEHB165
	.uleb128 .L576-.LFB3184
	.uleb128 0
	.uleb128 .LEHB166-.LFB3184
	.uleb128 .LEHE166-.LEHB166
	.uleb128 .L577-.LFB3184
	.uleb128 0
	.uleb128 .LEHB167-.LFB3184
	.uleb128 .LEHE167-.LEHB167
	.uleb128 .L578-.LFB3184
	.uleb128 0
	.uleb128 .LEHB168-.LFB3184
	.uleb128 .LEHE168-.LEHB168
	.uleb128 .L579-.LFB3184
	.uleb128 0
	.uleb128 .LEHB169-.LFB3184
	.uleb128 .LEHE169-.LEHB169
	.uleb128 .L580-.LFB3184
	.uleb128 0
	.uleb128 .LEHB170-.LFB3184
	.uleb128 .LEHE170-.LEHB170
	.uleb128 .L581-.LFB3184
	.uleb128 0
	.uleb128 .LEHB171-.LFB3184
	.uleb128 .LEHE171-.LEHB171
	.uleb128 .L582-.LFB3184
	.uleb128 0
	.uleb128 .LEHB172-.LFB3184
	.uleb128 .LEHE172-.LEHB172
	.uleb128 .L583-.LFB3184
	.uleb128 0
	.uleb128 .LEHB173-.LFB3184
	.uleb128 .LEHE173-.LEHB173
	.uleb128 .L584-.LFB3184
	.uleb128 0
	.uleb128 .LEHB174-.LFB3184
	.uleb128 .LEHE174-.LEHB174
	.uleb128 .L585-.LFB3184
	.uleb128 0
	.uleb128 .LEHB175-.LFB3184
	.uleb128 .LEHE175-.LEHB175
	.uleb128 .L586-.LFB3184
	.uleb128 0
	.uleb128 .LEHB176-.LFB3184
	.uleb128 .LEHE176-.LEHB176
	.uleb128 .L587-.LFB3184
	.uleb128 0
	.uleb128 .LEHB177-.LFB3184
	.uleb128 .LEHE177-.LEHB177
	.uleb128 .L588-.LFB3184
	.uleb128 0
	.uleb128 .LEHB178-.LFB3184
	.uleb128 .LEHE178-.LEHB178
	.uleb128 .L589-.LFB3184
	.uleb128 0
	.uleb128 .LEHB179-.LFB3184
	.uleb128 .LEHE179-.LEHB179
	.uleb128 .L590-.LFB3184
	.uleb128 0
	.uleb128 .LEHB180-.LFB3184
	.uleb128 .LEHE180-.LEHB180
	.uleb128 .L591-.LFB3184
	.uleb128 0
	.uleb128 .LEHB181-.LFB3184
	.uleb128 .LEHE181-.LEHB181
	.uleb128 .L592-.LFB3184
	.uleb128 0
	.uleb128 .LEHB182-.LFB3184
	.uleb128 .LEHE182-.LEHB182
	.uleb128 .L593-.LFB3184
	.uleb128 0
	.uleb128 .LEHB183-.LFB3184
	.uleb128 .LEHE183-.LEHB183
	.uleb128 .L594-.LFB3184
	.uleb128 0
	.uleb128 .LEHB184-.LFB3184
	.uleb128 .LEHE184-.LEHB184
	.uleb128 .L595-.LFB3184
	.uleb128 0
	.uleb128 .LEHB185-.LFB3184
	.uleb128 .LEHE185-.LEHB185
	.uleb128 .L596-.LFB3184
	.uleb128 0
	.uleb128 .LEHB186-.LFB3184
	.uleb128 .LEHE186-.LEHB186
	.uleb128 .L597-.LFB3184
	.uleb128 0
	.uleb128 .LEHB187-.LFB3184
	.uleb128 .LEHE187-.LEHB187
	.uleb128 .L598-.LFB3184
	.uleb128 0
	.uleb128 .LEHB188-.LFB3184
	.uleb128 .LEHE188-.LEHB188
	.uleb128 .L599-.LFB3184
	.uleb128 0
	.uleb128 .LEHB189-.LFB3184
	.uleb128 .LEHE189-.LEHB189
	.uleb128 .L600-.LFB3184
	.uleb128 0
	.uleb128 .LEHB190-.LFB3184
	.uleb128 .LEHE190-.LEHB190
	.uleb128 .L601-.LFB3184
	.uleb128 0
	.uleb128 .LEHB191-.LFB3184
	.uleb128 .LEHE191-.LEHB191
	.uleb128 .L602-.LFB3184
	.uleb128 0
	.uleb128 .LEHB192-.LFB3184
	.uleb128 .LEHE192-.LEHB192
	.uleb128 .L603-.LFB3184
	.uleb128 0
	.uleb128 .LEHB193-.LFB3184
	.uleb128 .LEHE193-.LEHB193
	.uleb128 .L604-.LFB3184
	.uleb128 0
	.uleb128 .LEHB194-.LFB3184
	.uleb128 .LEHE194-.LEHB194
	.uleb128 .L605-.LFB3184
	.uleb128 0
	.uleb128 .LEHB195-.LFB3184
	.uleb128 .LEHE195-.LEHB195
	.uleb128 .L606-.LFB3184
	.uleb128 0
	.uleb128 .LEHB196-.LFB3184
	.uleb128 .LEHE196-.LEHB196
	.uleb128 .L607-.LFB3184
	.uleb128 0
	.uleb128 .LEHB197-.LFB3184
	.uleb128 .LEHE197-.LEHB197
	.uleb128 .L608-.LFB3184
	.uleb128 0
	.uleb128 .LEHB198-.LFB3184
	.uleb128 .LEHE198-.LEHB198
	.uleb128 .L609-.LFB3184
	.uleb128 0
	.uleb128 .LEHB199-.LFB3184
	.uleb128 .LEHE199-.LEHB199
	.uleb128 .L610-.LFB3184
	.uleb128 0
	.uleb128 .LEHB200-.LFB3184
	.uleb128 .LEHE200-.LEHB200
	.uleb128 .L611-.LFB3184
	.uleb128 0
	.uleb128 .LEHB201-.LFB3184
	.uleb128 .LEHE201-.LEHB201
	.uleb128 .L612-.LFB3184
	.uleb128 0
	.uleb128 .LEHB202-.LFB3184
	.uleb128 .LEHE202-.LEHB202
	.uleb128 .L613-.LFB3184
	.uleb128 0
	.uleb128 .LEHB203-.LFB3184
	.uleb128 .LEHE203-.LEHB203
	.uleb128 .L614-.LFB3184
	.uleb128 0
	.uleb128 .LEHB204-.LFB3184
	.uleb128 .LEHE204-.LEHB204
	.uleb128 .L615-.LFB3184
	.uleb128 0
	.uleb128 .LEHB205-.LFB3184
	.uleb128 .LEHE205-.LEHB205
	.uleb128 .L616-.LFB3184
	.uleb128 0
	.uleb128 .LEHB206-.LFB3184
	.uleb128 .LEHE206-.LEHB206
	.uleb128 .L617-.LFB3184
	.uleb128 0
	.uleb128 .LEHB207-.LFB3184
	.uleb128 .LEHE207-.LEHB207
	.uleb128 .L618-.LFB3184
	.uleb128 0
	.uleb128 .LEHB208-.LFB3184
	.uleb128 .LEHE208-.LEHB208
	.uleb128 .L619-.LFB3184
	.uleb128 0
	.uleb128 .LEHB209-.LFB3184
	.uleb128 .LEHE209-.LEHB209
	.uleb128 .L620-.LFB3184
	.uleb128 0
	.uleb128 .LEHB210-.LFB3184
	.uleb128 .LEHE210-.LEHB210
	.uleb128 .L621-.LFB3184
	.uleb128 0
	.uleb128 .LEHB211-.LFB3184
	.uleb128 .LEHE211-.LEHB211
	.uleb128 .L622-.LFB3184
	.uleb128 0
	.uleb128 .LEHB212-.LFB3184
	.uleb128 .LEHE212-.LEHB212
	.uleb128 .L623-.LFB3184
	.uleb128 0
	.uleb128 .LEHB213-.LFB3184
	.uleb128 .LEHE213-.LEHB213
	.uleb128 .L624-.LFB3184
	.uleb128 0
	.uleb128 .LEHB214-.LFB3184
	.uleb128 .LEHE214-.LEHB214
	.uleb128 .L625-.LFB3184
	.uleb128 0
	.uleb128 .LEHB215-.LFB3184
	.uleb128 .LEHE215-.LEHB215
	.uleb128 .L626-.LFB3184
	.uleb128 0
	.uleb128 .LEHB216-.LFB3184
	.uleb128 .LEHE216-.LEHB216
	.uleb128 .L627-.LFB3184
	.uleb128 0
	.uleb128 .LEHB217-.LFB3184
	.uleb128 .LEHE217-.LEHB217
	.uleb128 .L628-.LFB3184
	.uleb128 0
	.uleb128 .LEHB218-.LFB3184
	.uleb128 .LEHE218-.LEHB218
	.uleb128 .L629-.LFB3184
	.uleb128 0
	.uleb128 .LEHB219-.LFB3184
	.uleb128 .LEHE219-.LEHB219
	.uleb128 .L630-.LFB3184
	.uleb128 0
	.uleb128 .LEHB220-.LFB3184
	.uleb128 .LEHE220-.LEHB220
	.uleb128 .L631-.LFB3184
	.uleb128 0
	.uleb128 .LEHB221-.LFB3184
	.uleb128 .LEHE221-.LEHB221
	.uleb128 .L632-.LFB3184
	.uleb128 0
	.uleb128 .LEHB222-.LFB3184
	.uleb128 .LEHE222-.LEHB222
	.uleb128 .L633-.LFB3184
	.uleb128 0
	.uleb128 .LEHB223-.LFB3184
	.uleb128 .LEHE223-.LEHB223
	.uleb128 .L634-.LFB3184
	.uleb128 0
	.uleb128 .LEHB224-.LFB3184
	.uleb128 .LEHE224-.LEHB224
	.uleb128 .L635-.LFB3184
	.uleb128 0
	.uleb128 .LEHB225-.LFB3184
	.uleb128 .LEHE225-.LEHB225
	.uleb128 .L636-.LFB3184
	.uleb128 0
	.uleb128 .LEHB226-.LFB3184
	.uleb128 .LEHE226-.LEHB226
	.uleb128 .L637-.LFB3184
	.uleb128 0
	.uleb128 .LEHB227-.LFB3184
	.uleb128 .LEHE227-.LEHB227
	.uleb128 .L638-.LFB3184
	.uleb128 0
	.uleb128 .LEHB228-.LFB3184
	.uleb128 .LEHE228-.LEHB228
	.uleb128 .L639-.LFB3184
	.uleb128 0
	.uleb128 .LEHB229-.LFB3184
	.uleb128 .LEHE229-.LEHB229
	.uleb128 .L640-.LFB3184
	.uleb128 0
	.uleb128 .LEHB230-.LFB3184
	.uleb128 .LEHE230-.LEHB230
	.uleb128 .L641-.LFB3184
	.uleb128 0
	.uleb128 .LEHB231-.LFB3184
	.uleb128 .LEHE231-.LEHB231
	.uleb128 .L642-.LFB3184
	.uleb128 0
	.uleb128 .LEHB232-.LFB3184
	.uleb128 .LEHE232-.LEHB232
	.uleb128 .L643-.LFB3184
	.uleb128 0
	.uleb128 .LEHB233-.LFB3184
	.uleb128 .LEHE233-.LEHB233
	.uleb128 0
	.uleb128 0
.LLSDACSE3184:
	.section	.text._ZN11ConstTokensC2Ev,"axG",@progbits,_ZN11ConstTokensC5Ev,comdat
	.size	_ZN11ConstTokensC2Ev, .-_ZN11ConstTokensC2Ev
	.weak	_ZN11ConstTokensC1Ev
	.set	_ZN11ConstTokensC1Ev,_ZN11ConstTokensC2Ev
	.local	_ZL11ConstTokens
	.comm	_ZL11ConstTokens,512,32
	.section	.rodata
.LC36:
	.string	"keyword"
	.text
	.align 2
	.globl	_ZN20AbstractKeywordTokenC2ENSt7__cxx1112basic_stringIcSt11char_traitsIcESaIcEEE
	.type	_ZN20AbstractKeywordTokenC2ENSt7__cxx1112basic_stringIcSt11char_traitsIcESaIcEEE, @function
_ZN20AbstractKeywordTokenC2ENSt7__cxx1112basic_stringIcSt11char_traitsIcESaIcEEE:
.LFB3187:
	.cfi_startproc
	.cfi_personality 0x9b,DW.ref.__gxx_personality_v0
	.cfi_lsda 0x1b,.LLSDA3187
	pushq	%rbp
	.cfi_def_cfa_offset 16
	.cfi_offset 6, -16
	movq	%rsp, %rbp
	.cfi_def_cfa_register 6
	pushq	%rbx
	subq	$72, %rsp
	.cfi_offset 3, -24
	movq	%rdi, -72(%rbp)
	movq	%rsi, -80(%rbp)
	movq	-72(%rbp), %rbx
	leaq	-17(%rbp), %rax
	movq	%rax, %rdi
	call	_ZNSaIcEC1Ev@PLT
	leaq	-17(%rbp), %rdx
	leaq	-64(%rbp), %rax
	leaq	.LC36(%rip), %rcx
	movq	%rcx, %rsi
	movq	%rax, %rdi
.LEHB234:
	call	_ZNSt7__cxx1112basic_stringIcSt11char_traitsIcESaIcEEC1IS3_EEPKcRKS3_
.LEHE234:
	leaq	-64(%rbp), %rax
	movq	%rax, %rsi
	movq	%rbx, %rdi
.LEHB235:
	call	_ZN13AbstractTokenC2ENSt7__cxx1112basic_stringIcSt11char_traitsIcESaIcEEE
.LEHE235:
	leaq	-64(%rbp), %rax
	movq	%rax, %rdi
	call	_ZNSt7__cxx1112basic_stringIcSt11char_traitsIcESaIcEED1Ev@PLT
	leaq	-17(%rbp), %rax
	movq	%rax, %rdi
	call	_ZNSaIcED1Ev@PLT
	leaq	16+_ZTV20AbstractKeywordToken(%rip), %rdx
	movq	-72(%rbp), %rax
	movq	%rdx, (%rax)
	movq	-72(%rbp), %rax
	addq	$40, %rax
	movq	%rax, %rdi
	call	_ZNSt7__cxx1112basic_stringIcSt11char_traitsIcESaIcEEC1Ev@PLT
	movq	-72(%rbp), %rax
	leaq	40(%rax), %rdx
	movq	-80(%rbp), %rax
	movq	%rax, %rsi
	movq	%rdx, %rdi
.LEHB236:
	call	_ZNSt7__cxx1112basic_stringIcSt11char_traitsIcESaIcEEaSERKS4_@PLT
.LEHE236:
	jmp	.L652
.L650:
	movq	%rax, %rbx
	leaq	-64(%rbp), %rax
	movq	%rax, %rdi
	call	_ZNSt7__cxx1112basic_stringIcSt11char_traitsIcESaIcEED1Ev@PLT
	jmp	.L647
.L649:
	movq	%rax, %rbx
.L647:
	leaq	-17(%rbp), %rax
	movq	%rax, %rdi
	call	_ZNSaIcED1Ev@PLT
	movq	%rbx, %rax
	movq	%rax, %rdi
.LEHB237:
	call	_Unwind_Resume@PLT
.L651:
	movq	%rax, %rbx
	movq	-72(%rbp), %rax
	addq	$40, %rax
	movq	%rax, %rdi
	call	_ZNSt7__cxx1112basic_stringIcSt11char_traitsIcESaIcEED1Ev@PLT
	movq	-72(%rbp), %rax
	movq	%rax, %rdi
	call	_ZN13AbstractTokenD2Ev
	movq	%rbx, %rax
	movq	%rax, %rdi
	call	_Unwind_Resume@PLT
.LEHE237:
.L652:
	movq	-8(%rbp), %rbx
	leave
	.cfi_def_cfa 7, 8
	ret
	.cfi_endproc
.LFE3187:
	.section	.gcc_except_table
.LLSDA3187:
	.byte	0xff
	.byte	0xff
	.byte	0x1
	.uleb128 .LLSDACSE3187-.LLSDACSB3187
.LLSDACSB3187:
	.uleb128 .LEHB234-.LFB3187
	.uleb128 .LEHE234-.LEHB234
	.uleb128 .L649-.LFB3187
	.uleb128 0
	.uleb128 .LEHB235-.LFB3187
	.uleb128 .LEHE235-.LEHB235
	.uleb128 .L650-.LFB3187
	.uleb128 0
	.uleb128 .LEHB236-.LFB3187
	.uleb128 .LEHE236-.LEHB236
	.uleb128 .L651-.LFB3187
	.uleb128 0
	.uleb128 .LEHB237-.LFB3187
	.uleb128 .LEHE237-.LEHB237
	.uleb128 0
	.uleb128 0
.LLSDACSE3187:
	.text
	.size	_ZN20AbstractKeywordTokenC2ENSt7__cxx1112basic_stringIcSt11char_traitsIcESaIcEEE, .-_ZN20AbstractKeywordTokenC2ENSt7__cxx1112basic_stringIcSt11char_traitsIcESaIcEEE
	.globl	_ZN20AbstractKeywordTokenC1ENSt7__cxx1112basic_stringIcSt11char_traitsIcESaIcEEE
	.set	_ZN20AbstractKeywordTokenC1ENSt7__cxx1112basic_stringIcSt11char_traitsIcESaIcEEE,_ZN20AbstractKeywordTokenC2ENSt7__cxx1112basic_stringIcSt11char_traitsIcESaIcEEE
	.align 2
	.globl	_ZN20AbstractKeywordTokenD2Ev
	.type	_ZN20AbstractKeywordTokenD2Ev, @function
_ZN20AbstractKeywordTokenD2Ev:
.LFB3190:
	.cfi_startproc
	pushq	%rbp
	.cfi_def_cfa_offset 16
	.cfi_offset 6, -16
	movq	%rsp, %rbp
	.cfi_def_cfa_register 6
	subq	$16, %rsp
	movq	%rdi, -8(%rbp)
	leaq	16+_ZTV20AbstractKeywordToken(%rip), %rdx
	movq	-8(%rbp), %rax
	movq	%rdx, (%rax)
	movq	-8(%rbp), %rax
	addq	$40, %rax
	movq	%rax, %rdi
	call	_ZNSt7__cxx1112basic_stringIcSt11char_traitsIcESaIcEED1Ev@PLT
	movq	-8(%rbp), %rax
	movq	%rax, %rdi
	call	_ZN13AbstractTokenD2Ev
	nop
	leave
	.cfi_def_cfa 7, 8
	ret
	.cfi_endproc
.LFE3190:
	.size	_ZN20AbstractKeywordTokenD2Ev, .-_ZN20AbstractKeywordTokenD2Ev
	.globl	_ZN20AbstractKeywordTokenD1Ev
	.set	_ZN20AbstractKeywordTokenD1Ev,_ZN20AbstractKeywordTokenD2Ev
	.align 2
	.globl	_ZN20AbstractKeywordTokenD0Ev
	.type	_ZN20AbstractKeywordTokenD0Ev, @function
_ZN20AbstractKeywordTokenD0Ev:
.LFB3192:
	.cfi_startproc
	pushq	%rbp
	.cfi_def_cfa_offset 16
	.cfi_offset 6, -16
	movq	%rsp, %rbp
	.cfi_def_cfa_register 6
	subq	$16, %rsp
	movq	%rdi, -8(%rbp)
	movq	-8(%rbp), %rax
	movq	%rax, %rdi
	call	_ZN20AbstractKeywordTokenD1Ev
	movq	-8(%rbp), %rax
	movl	$72, %esi
	movq	%rax, %rdi
	call	_ZdlPvm@PLT
	leave
	.cfi_def_cfa 7, 8
	ret
	.cfi_endproc
.LFE3192:
	.size	_ZN20AbstractKeywordTokenD0Ev, .-_ZN20AbstractKeywordTokenD0Ev
	.section	.text._ZNSt12__shared_ptrI20AbstractKeywordTokenLN9__gnu_cxx12_Lock_policyE2EED2Ev,"axG",@progbits,_ZNSt12__shared_ptrI20AbstractKeywordTokenLN9__gnu_cxx12_Lock_policyE2EED5Ev,comdat
	.align 2
	.weak	_ZNSt12__shared_ptrI20AbstractKeywordTokenLN9__gnu_cxx12_Lock_policyE2EED2Ev
	.type	_ZNSt12__shared_ptrI20AbstractKeywordTokenLN9__gnu_cxx12_Lock_policyE2EED2Ev, @function
_ZNSt12__shared_ptrI20AbstractKeywordTokenLN9__gnu_cxx12_Lock_policyE2EED2Ev:
.LFB3196:
	.cfi_startproc
	pushq	%rbp
	.cfi_def_cfa_offset 16
	.cfi_offset 6, -16
	movq	%rsp, %rbp
	.cfi_def_cfa_register 6
	subq	$16, %rsp
	movq	%rdi, -8(%rbp)
	movq	-8(%rbp), %rax
	addq	$8, %rax
	movq	%rax, %rdi
	call	_ZNSt14__shared_countILN9__gnu_cxx12_Lock_policyE2EED1Ev
	nop
	leave
	.cfi_def_cfa 7, 8
	ret
	.cfi_endproc
.LFE3196:
	.size	_ZNSt12__shared_ptrI20AbstractKeywordTokenLN9__gnu_cxx12_Lock_policyE2EED2Ev, .-_ZNSt12__shared_ptrI20AbstractKeywordTokenLN9__gnu_cxx12_Lock_policyE2EED2Ev
	.weak	_ZNSt12__shared_ptrI20AbstractKeywordTokenLN9__gnu_cxx12_Lock_policyE2EED1Ev
	.set	_ZNSt12__shared_ptrI20AbstractKeywordTokenLN9__gnu_cxx12_Lock_policyE2EED1Ev,_ZNSt12__shared_ptrI20AbstractKeywordTokenLN9__gnu_cxx12_Lock_policyE2EED2Ev
	.section	.text._ZNSt10shared_ptrI20AbstractKeywordTokenED2Ev,"axG",@progbits,_ZNSt10shared_ptrI20AbstractKeywordTokenED5Ev,comdat
	.align 2
	.weak	_ZNSt10shared_ptrI20AbstractKeywordTokenED2Ev
	.type	_ZNSt10shared_ptrI20AbstractKeywordTokenED2Ev, @function
_ZNSt10shared_ptrI20AbstractKeywordTokenED2Ev:
.LFB3198:
	.cfi_startproc
	pushq	%rbp
	.cfi_def_cfa_offset 16
	.cfi_offset 6, -16
	movq	%rsp, %rbp
	.cfi_def_cfa_register 6
	subq	$16, %rsp
	movq	%rdi, -8(%rbp)
	movq	-8(%rbp), %rax
	movq	%rax, %rdi
	call	_ZNSt12__shared_ptrI20AbstractKeywordTokenLN9__gnu_cxx12_Lock_policyE2EED2Ev
	nop
	leave
	.cfi_def_cfa 7, 8
	ret
	.cfi_endproc
.LFE3198:
	.size	_ZNSt10shared_ptrI20AbstractKeywordTokenED2Ev, .-_ZNSt10shared_ptrI20AbstractKeywordTokenED2Ev
	.weak	_ZNSt10shared_ptrI20AbstractKeywordTokenED1Ev
	.set	_ZNSt10shared_ptrI20AbstractKeywordTokenED1Ev,_ZNSt10shared_ptrI20AbstractKeywordTokenED2Ev
	.text
	.align 2
	.globl	_ZN20AbstractKeywordToken11IsThisTokenESt10shared_ptrI13AbstractTokenE
	.type	_ZN20AbstractKeywordToken11IsThisTokenESt10shared_ptrI13AbstractTokenE, @function
_ZN20AbstractKeywordToken11IsThisTokenESt10shared_ptrI13AbstractTokenE:
.LFB3193:
	.cfi_startproc
	.cfi_personality 0x9b,DW.ref.__gxx_personality_v0
	.cfi_lsda 0x1b,.LLSDA3193
	pushq	%rbp
	.cfi_def_cfa_offset 16
	.cfi_offset 6, -16
	movq	%rsp, %rbp
	.cfi_def_cfa_register 6
	pushq	%r14
	pushq	%r13
	pushq	%r12
	pushq	%rbx
	subq	$80, %rsp
	.cfi_offset 14, -24
	.cfi_offset 13, -32
	.cfi_offset 12, -40
	.cfi_offset 3, -48
	movq	%rdi, -104(%rbp)
	movq	%rsi, -112(%rbp)
	movl	$0, %ebx
	movl	$0, %r12d
	movq	-104(%rbp), %r14
	movq	-112(%rbp), %rdx
	leaq	-96(%rbp), %rax
	movq	%rdx, %rsi
	movq	%rax, %rdi
	call	_ZNSt10shared_ptrI13AbstractTokenEC1ERKS1_
	movl	$1, %r13d
	leaq	-96(%rbp), %rax
	movq	%rax, %rsi
	movq	%r14, %rdi
	call	_ZN13AbstractToken11IsThisTokenESt10shared_ptrIS_E
	testb	%al, %al
	je	.L658
	leaq	-48(%rbp), %rax
	movq	-112(%rbp), %rdx
	movq	%rdx, %rsi
	movq	%rax, %rdi
	call	_ZSt20dynamic_pointer_castI20AbstractKeywordToken13AbstractTokenESt10shared_ptrIT_ERKS2_IT0_E
	movl	$1, %ebx
	leaq	-48(%rbp), %rax
	movq	%rax, %rdi
	call	_ZNKSt19__shared_ptr_accessI20AbstractKeywordTokenLN9__gnu_cxx12_Lock_policyE2ELb0ELb0EEptEv
	leaq	40(%rax), %rdx
	leaq	-80(%rbp), %rax
	movq	%rdx, %rsi
	movq	%rax, %rdi
.LEHB238:
	call	_ZNSt7__cxx1112basic_stringIcSt11char_traitsIcESaIcEEC1ERKS4_@PLT
.LEHE238:
	movl	$1, %r12d
	leaq	-80(%rbp), %rdx
	movq	-104(%rbp), %rax
	movq	%rdx, %rsi
	movq	%rax, %rdi
	call	_ZN20AbstractKeywordToken13IsThisKeywordENSt7__cxx1112basic_stringIcSt11char_traitsIcESaIcEEE
	testb	%al, %al
	je	.L658
	movl	$1, %r14d
	jmp	.L659
.L658:
	movl	$0, %r14d
.L659:
	testb	%r12b, %r12b
	je	.L660
	leaq	-80(%rbp), %rax
	movq	%rax, %rdi
	call	_ZNSt7__cxx1112basic_stringIcSt11char_traitsIcESaIcEED1Ev@PLT
.L660:
	testb	%bl, %bl
	je	.L661
	leaq	-48(%rbp), %rax
	movq	%rax, %rdi
	call	_ZNSt10shared_ptrI20AbstractKeywordTokenED1Ev
.L661:
	testb	%r13b, %r13b
	je	.L663
	leaq	-96(%rbp), %rax
	movq	%rax, %rdi
	call	_ZNSt10shared_ptrI13AbstractTokenED1Ev
.L663:
	movl	%r14d, %eax
	jmp	.L669
.L668:
	movq	%rax, %r14
	testb	%r12b, %r12b
	je	.L665
	leaq	-80(%rbp), %rax
	movq	%rax, %rdi
	call	_ZNSt7__cxx1112basic_stringIcSt11char_traitsIcESaIcEED1Ev@PLT
.L665:
	movq	%r14, %r12
	testb	%bl, %bl
	je	.L666
	leaq	-48(%rbp), %rax
	movq	%rax, %rdi
	call	_ZNSt10shared_ptrI20AbstractKeywordTokenED1Ev
.L666:
	movq	%r12, %rbx
	testb	%r13b, %r13b
	je	.L667
	leaq	-96(%rbp), %rax
	movq	%rax, %rdi
	call	_ZNSt10shared_ptrI13AbstractTokenED1Ev
.L667:
	movq	%rbx, %rax
	movq	%rax, %rdi
.LEHB239:
	call	_Unwind_Resume@PLT
.LEHE239:
.L669:
	addq	$80, %rsp
	popq	%rbx
	popq	%r12
	popq	%r13
	popq	%r14
	popq	%rbp
	.cfi_def_cfa 7, 8
	ret
	.cfi_endproc
.LFE3193:
	.section	.gcc_except_table
.LLSDA3193:
	.byte	0xff
	.byte	0xff
	.byte	0x1
	.uleb128 .LLSDACSE3193-.LLSDACSB3193
.LLSDACSB3193:
	.uleb128 .LEHB238-.LFB3193
	.uleb128 .LEHE238-.LEHB238
	.uleb128 .L668-.LFB3193
	.uleb128 0
	.uleb128 .LEHB239-.LFB3193
	.uleb128 .LEHE239-.LEHB239
	.uleb128 0
	.uleb128 0
.LLSDACSE3193:
	.text
	.size	_ZN20AbstractKeywordToken11IsThisTokenESt10shared_ptrI13AbstractTokenE, .-_ZN20AbstractKeywordToken11IsThisTokenESt10shared_ptrI13AbstractTokenE
	.section	.rodata
.LC37:
	.string	":"
	.text
	.align 2
	.globl	_ZN20AbstractKeywordToken8ToStringB5cxx11Ev
	.type	_ZN20AbstractKeywordToken8ToStringB5cxx11Ev, @function
_ZN20AbstractKeywordToken8ToStringB5cxx11Ev:
.LFB3200:
	.cfi_startproc
	.cfi_personality 0x9b,DW.ref.__gxx_personality_v0
	.cfi_lsda 0x1b,.LLSDA3200
	pushq	%rbp
	.cfi_def_cfa_offset 16
	.cfi_offset 6, -16
	movq	%rsp, %rbp
	.cfi_def_cfa_register 6
	pushq	%rbx
	subq	$88, %rsp
	.cfi_offset 3, -24
	movq	%rdi, -88(%rbp)
	movq	%rsi, -96(%rbp)
	movq	-96(%rbp), %rax
	leaq	40(%rax), %rbx
	movq	-96(%rbp), %rdx
	leaq	-48(%rbp), %rax
	movq	%rdx, %rsi
	movq	%rax, %rdi
.LEHB240:
	call	_ZN13AbstractToken8ToStringB5cxx11Ev
.LEHE240:
	leaq	-80(%rbp), %rax
	leaq	-48(%rbp), %rcx
	leaq	.LC37(%rip), %rdx
	movq	%rcx, %rsi
	movq	%rax, %rdi
.LEHB241:
	call	_ZStplIcSt11char_traitsIcESaIcEENSt7__cxx1112basic_stringIT_T0_T1_EEOS8_PKS5_
.LEHE241:
	movq	-88(%rbp), %rax
	leaq	-80(%rbp), %rcx
	movq	%rbx, %rdx
	movq	%rcx, %rsi
	movq	%rax, %rdi
.LEHB242:
	call	_ZStplIcSt11char_traitsIcESaIcEENSt7__cxx1112basic_stringIT_T0_T1_EEOS8_RKS8_
.LEHE242:
	nop
	leaq	-80(%rbp), %rax
	movq	%rax, %rdi
	call	_ZNSt7__cxx1112basic_stringIcSt11char_traitsIcESaIcEED1Ev@PLT
	leaq	-48(%rbp), %rax
	movq	%rax, %rdi
	call	_ZNSt7__cxx1112basic_stringIcSt11char_traitsIcESaIcEED1Ev@PLT
	jmp	.L676
.L675:
	movq	%rax, %rbx
	leaq	-80(%rbp), %rax
	movq	%rax, %rdi
	call	_ZNSt7__cxx1112basic_stringIcSt11char_traitsIcESaIcEED1Ev@PLT
	jmp	.L673
.L674:
	movq	%rax, %rbx
.L673:
	leaq	-48(%rbp), %rax
	movq	%rax, %rdi
	call	_ZNSt7__cxx1112basic_stringIcSt11char_traitsIcESaIcEED1Ev@PLT
	movq	%rbx, %rax
	movq	%rax, %rdi
.LEHB243:
	call	_Unwind_Resume@PLT
.LEHE243:
.L676:
	movq	-88(%rbp), %rax
	movq	-8(%rbp), %rbx
	leave
	.cfi_def_cfa 7, 8
	ret
	.cfi_endproc
.LFE3200:
	.section	.gcc_except_table
.LLSDA3200:
	.byte	0xff
	.byte	0xff
	.byte	0x1
	.uleb128 .LLSDACSE3200-.LLSDACSB3200
.LLSDACSB3200:
	.uleb128 .LEHB240-.LFB3200
	.uleb128 .LEHE240-.LEHB240
	.uleb128 0
	.uleb128 0
	.uleb128 .LEHB241-.LFB3200
	.uleb128 .LEHE241-.LEHB241
	.uleb128 .L674-.LFB3200
	.uleb128 0
	.uleb128 .LEHB242-.LFB3200
	.uleb128 .LEHE242-.LEHB242
	.uleb128 .L675-.LFB3200
	.uleb128 0
	.uleb128 .LEHB243-.LFB3200
	.uleb128 .LEHE243-.LEHB243
	.uleb128 0
	.uleb128 0
.LLSDACSE3200:
	.text
	.size	_ZN20AbstractKeywordToken8ToStringB5cxx11Ev, .-_ZN20AbstractKeywordToken8ToStringB5cxx11Ev
	.align 2
	.globl	_ZN20AbstractKeywordToken13IsThisKeywordENSt7__cxx1112basic_stringIcSt11char_traitsIcESaIcEEE
	.type	_ZN20AbstractKeywordToken13IsThisKeywordENSt7__cxx1112basic_stringIcSt11char_traitsIcESaIcEEE, @function
_ZN20AbstractKeywordToken13IsThisKeywordENSt7__cxx1112basic_stringIcSt11char_traitsIcESaIcEEE:
.LFB3201:
	.cfi_startproc
	pushq	%rbp
	.cfi_def_cfa_offset 16
	.cfi_offset 6, -16
	movq	%rsp, %rbp
	.cfi_def_cfa_register 6
	subq	$16, %rsp
	movq	%rdi, -8(%rbp)
	movq	%rsi, -16(%rbp)
	movq	-8(%rbp), %rax
	leaq	40(%rax), %rdx
	movq	-16(%rbp), %rax
	movq	%rax, %rsi
	movq	%rdx, %rdi
	call	_ZSteqIcEN9__gnu_cxx11__enable_ifIXsrSt9__is_charIT_E7__valueEbE6__typeERKNSt7__cxx1112basic_stringIS3_St11char_traitsIS3_ESaIS3_EEESE_
	leave
	.cfi_def_cfa 7, 8
	ret
	.cfi_endproc
.LFE3201:
	.size	_ZN20AbstractKeywordToken13IsThisKeywordENSt7__cxx1112basic_stringIcSt11char_traitsIcESaIcEEE, .-_ZN20AbstractKeywordToken13IsThisKeywordENSt7__cxx1112basic_stringIcSt11char_traitsIcESaIcEEE
	.align 2
	.globl	_ZN20AbstractKeywordToken9IsKeywordEv
	.type	_ZN20AbstractKeywordToken9IsKeywordEv, @function
_ZN20AbstractKeywordToken9IsKeywordEv:
.LFB3202:
	.cfi_startproc
	pushq	%rbp
	.cfi_def_cfa_offset 16
	.cfi_offset 6, -16
	movq	%rsp, %rbp
	.cfi_def_cfa_register 6
	movq	%rdi, -8(%rbp)
	movl	$1, %eax
	popq	%rbp
	.cfi_def_cfa 7, 8
	ret
	.cfi_endproc
.LFE3202:
	.size	_ZN20AbstractKeywordToken9IsKeywordEv, .-_ZN20AbstractKeywordToken9IsKeywordEv
	.section	.rodata
.LC38:
	.string	"if"
.LC39:
	.string	"else"
.LC40:
	.string	"elif"
.LC41:
	.string	"while"
.LC42:
	.string	"for"
.LC43:
	.string	"break"
.LC44:
	.string	"continue"
.LC45:
	.string	"true"
.LC46:
	.string	"false"
.LC47:
	.string	"return"
.LC48:
	.string	"void"
.LC49:
	.string	"class"
.LC50:
	.string	"public"
.LC51:
	.string	"private"
.LC52:
	.string	"protected"
.LC53:
	.string	"static"
.LC54:
	.string	"const"
.LC55:
	.string	"readonly"
	.section	.text._ZN8KeywordsC2Ev,"axG",@progbits,_ZN8KeywordsC5Ev,comdat
	.align 2
	.weak	_ZN8KeywordsC2Ev
	.type	_ZN8KeywordsC2Ev, @function
_ZN8KeywordsC2Ev:
.LFB3205:
	.cfi_startproc
	.cfi_personality 0x9b,DW.ref.__gxx_personality_v0
	.cfi_lsda 0x1b,.LLSDA3205
	pushq	%rbp
	.cfi_def_cfa_offset 16
	.cfi_offset 6, -16
	movq	%rsp, %rbp
	.cfi_def_cfa_register 6
	pushq	%r12
	pushq	%rbx
	subq	$880, %rsp
	.cfi_offset 12, -24
	.cfi_offset 3, -32
	movq	%rdi, -888(%rbp)
	movq	-888(%rbp), %rbx
	movl	$72, %edi
.LEHB244:
	call	_Znwm@PLT
.LEHE244:
	movq	%rax, %r12
	leaq	-833(%rbp), %rax
	movq	%rax, %rdi
	call	_ZNSaIcEC1Ev@PLT
	leaq	-833(%rbp), %rdx
	leaq	-880(%rbp), %rax
	leaq	.LC38(%rip), %rcx
	movq	%rcx, %rsi
	movq	%rax, %rdi
.LEHB245:
	call	_ZNSt7__cxx1112basic_stringIcSt11char_traitsIcESaIcEEC1IS3_EEPKcRKS3_
.LEHE245:
	leaq	-880(%rbp), %rax
	movq	%rax, %rsi
	movq	%r12, %rdi
.LEHB246:
	call	_ZN20AbstractKeywordTokenC1ENSt7__cxx1112basic_stringIcSt11char_traitsIcESaIcEEE
	movq	%r12, %rsi
	movq	%rbx, %rdi
	call	_ZNSt10shared_ptrI20AbstractKeywordTokenEC1IS0_vEEPT_
.LEHE246:
	leaq	-880(%rbp), %rax
	movq	%rax, %rdi
	call	_ZNSt7__cxx1112basic_stringIcSt11char_traitsIcESaIcEED1Ev@PLT
	leaq	-833(%rbp), %rax
	movq	%rax, %rdi
	call	_ZNSaIcED1Ev@PLT
	movq	-888(%rbp), %rax
	leaq	16(%rax), %rbx
	movl	$72, %edi
.LEHB247:
	call	_Znwm@PLT
.LEHE247:
	movq	%rax, %r12
	leaq	-785(%rbp), %rax
	movq	%rax, %rdi
	call	_ZNSaIcEC1Ev@PLT
	leaq	-785(%rbp), %rdx
	leaq	-832(%rbp), %rax
	leaq	.LC39(%rip), %rcx
	movq	%rcx, %rsi
	movq	%rax, %rdi
.LEHB248:
	call	_ZNSt7__cxx1112basic_stringIcSt11char_traitsIcESaIcEEC1IS3_EEPKcRKS3_
.LEHE248:
	leaq	-832(%rbp), %rax
	movq	%rax, %rsi
	movq	%r12, %rdi
.LEHB249:
	call	_ZN20AbstractKeywordTokenC1ENSt7__cxx1112basic_stringIcSt11char_traitsIcESaIcEEE
	movq	%r12, %rsi
	movq	%rbx, %rdi
	call	_ZNSt10shared_ptrI20AbstractKeywordTokenEC1IS0_vEEPT_
.LEHE249:
	leaq	-832(%rbp), %rax
	movq	%rax, %rdi
	call	_ZNSt7__cxx1112basic_stringIcSt11char_traitsIcESaIcEED1Ev@PLT
	leaq	-785(%rbp), %rax
	movq	%rax, %rdi
	call	_ZNSaIcED1Ev@PLT
	movq	-888(%rbp), %rax
	leaq	32(%rax), %rbx
	movl	$72, %edi
.LEHB250:
	call	_Znwm@PLT
.LEHE250:
	movq	%rax, %r12
	leaq	-737(%rbp), %rax
	movq	%rax, %rdi
	call	_ZNSaIcEC1Ev@PLT
	leaq	-737(%rbp), %rdx
	leaq	-784(%rbp), %rax
	leaq	.LC40(%rip), %rcx
	movq	%rcx, %rsi
	movq	%rax, %rdi
.LEHB251:
	call	_ZNSt7__cxx1112basic_stringIcSt11char_traitsIcESaIcEEC1IS3_EEPKcRKS3_
.LEHE251:
	leaq	-784(%rbp), %rax
	movq	%rax, %rsi
	movq	%r12, %rdi
.LEHB252:
	call	_ZN20AbstractKeywordTokenC1ENSt7__cxx1112basic_stringIcSt11char_traitsIcESaIcEEE
	movq	%r12, %rsi
	movq	%rbx, %rdi
	call	_ZNSt10shared_ptrI20AbstractKeywordTokenEC1IS0_vEEPT_
.LEHE252:
	leaq	-784(%rbp), %rax
	movq	%rax, %rdi
	call	_ZNSt7__cxx1112basic_stringIcSt11char_traitsIcESaIcEED1Ev@PLT
	leaq	-737(%rbp), %rax
	movq	%rax, %rdi
	call	_ZNSaIcED1Ev@PLT
	movq	-888(%rbp), %rax
	leaq	48(%rax), %rbx
	movl	$72, %edi
.LEHB253:
	call	_Znwm@PLT
.LEHE253:
	movq	%rax, %r12
	leaq	-689(%rbp), %rax
	movq	%rax, %rdi
	call	_ZNSaIcEC1Ev@PLT
	leaq	-689(%rbp), %rdx
	leaq	-736(%rbp), %rax
	leaq	.LC41(%rip), %rcx
	movq	%rcx, %rsi
	movq	%rax, %rdi
.LEHB254:
	call	_ZNSt7__cxx1112basic_stringIcSt11char_traitsIcESaIcEEC1IS3_EEPKcRKS3_
.LEHE254:
	leaq	-736(%rbp), %rax
	movq	%rax, %rsi
	movq	%r12, %rdi
.LEHB255:
	call	_ZN20AbstractKeywordTokenC1ENSt7__cxx1112basic_stringIcSt11char_traitsIcESaIcEEE
	movq	%r12, %rsi
	movq	%rbx, %rdi
	call	_ZNSt10shared_ptrI20AbstractKeywordTokenEC1IS0_vEEPT_
.LEHE255:
	leaq	-736(%rbp), %rax
	movq	%rax, %rdi
	call	_ZNSt7__cxx1112basic_stringIcSt11char_traitsIcESaIcEED1Ev@PLT
	leaq	-689(%rbp), %rax
	movq	%rax, %rdi
	call	_ZNSaIcED1Ev@PLT
	movq	-888(%rbp), %rax
	leaq	64(%rax), %rbx
	movl	$72, %edi
.LEHB256:
	call	_Znwm@PLT
.LEHE256:
	movq	%rax, %r12
	leaq	-641(%rbp), %rax
	movq	%rax, %rdi
	call	_ZNSaIcEC1Ev@PLT
	leaq	-641(%rbp), %rdx
	leaq	-688(%rbp), %rax
	leaq	.LC42(%rip), %rcx
	movq	%rcx, %rsi
	movq	%rax, %rdi
.LEHB257:
	call	_ZNSt7__cxx1112basic_stringIcSt11char_traitsIcESaIcEEC1IS3_EEPKcRKS3_
.LEHE257:
	leaq	-688(%rbp), %rax
	movq	%rax, %rsi
	movq	%r12, %rdi
.LEHB258:
	call	_ZN20AbstractKeywordTokenC1ENSt7__cxx1112basic_stringIcSt11char_traitsIcESaIcEEE
	movq	%r12, %rsi
	movq	%rbx, %rdi
	call	_ZNSt10shared_ptrI20AbstractKeywordTokenEC1IS0_vEEPT_
.LEHE258:
	leaq	-688(%rbp), %rax
	movq	%rax, %rdi
	call	_ZNSt7__cxx1112basic_stringIcSt11char_traitsIcESaIcEED1Ev@PLT
	leaq	-641(%rbp), %rax
	movq	%rax, %rdi
	call	_ZNSaIcED1Ev@PLT
	movq	-888(%rbp), %rax
	leaq	80(%rax), %rbx
	movl	$72, %edi
.LEHB259:
	call	_Znwm@PLT
.LEHE259:
	movq	%rax, %r12
	leaq	-593(%rbp), %rax
	movq	%rax, %rdi
	call	_ZNSaIcEC1Ev@PLT
	leaq	-593(%rbp), %rdx
	leaq	-640(%rbp), %rax
	leaq	.LC43(%rip), %rcx
	movq	%rcx, %rsi
	movq	%rax, %rdi
.LEHB260:
	call	_ZNSt7__cxx1112basic_stringIcSt11char_traitsIcESaIcEEC1IS3_EEPKcRKS3_
.LEHE260:
	leaq	-640(%rbp), %rax
	movq	%rax, %rsi
	movq	%r12, %rdi
.LEHB261:
	call	_ZN20AbstractKeywordTokenC1ENSt7__cxx1112basic_stringIcSt11char_traitsIcESaIcEEE
	movq	%r12, %rsi
	movq	%rbx, %rdi
	call	_ZNSt10shared_ptrI20AbstractKeywordTokenEC1IS0_vEEPT_
.LEHE261:
	leaq	-640(%rbp), %rax
	movq	%rax, %rdi
	call	_ZNSt7__cxx1112basic_stringIcSt11char_traitsIcESaIcEED1Ev@PLT
	leaq	-593(%rbp), %rax
	movq	%rax, %rdi
	call	_ZNSaIcED1Ev@PLT
	movq	-888(%rbp), %rax
	leaq	96(%rax), %rbx
	movl	$72, %edi
.LEHB262:
	call	_Znwm@PLT
.LEHE262:
	movq	%rax, %r12
	leaq	-545(%rbp), %rax
	movq	%rax, %rdi
	call	_ZNSaIcEC1Ev@PLT
	leaq	-545(%rbp), %rdx
	leaq	-592(%rbp), %rax
	leaq	.LC44(%rip), %rcx
	movq	%rcx, %rsi
	movq	%rax, %rdi
.LEHB263:
	call	_ZNSt7__cxx1112basic_stringIcSt11char_traitsIcESaIcEEC1IS3_EEPKcRKS3_
.LEHE263:
	leaq	-592(%rbp), %rax
	movq	%rax, %rsi
	movq	%r12, %rdi
.LEHB264:
	call	_ZN20AbstractKeywordTokenC1ENSt7__cxx1112basic_stringIcSt11char_traitsIcESaIcEEE
	movq	%r12, %rsi
	movq	%rbx, %rdi
	call	_ZNSt10shared_ptrI20AbstractKeywordTokenEC1IS0_vEEPT_
.LEHE264:
	leaq	-592(%rbp), %rax
	movq	%rax, %rdi
	call	_ZNSt7__cxx1112basic_stringIcSt11char_traitsIcESaIcEED1Ev@PLT
	leaq	-545(%rbp), %rax
	movq	%rax, %rdi
	call	_ZNSaIcED1Ev@PLT
	movq	-888(%rbp), %rax
	leaq	112(%rax), %rbx
	movl	$72, %edi
.LEHB265:
	call	_Znwm@PLT
.LEHE265:
	movq	%rax, %r12
	leaq	-497(%rbp), %rax
	movq	%rax, %rdi
	call	_ZNSaIcEC1Ev@PLT
	leaq	-497(%rbp), %rdx
	leaq	-544(%rbp), %rax
	leaq	.LC45(%rip), %rcx
	movq	%rcx, %rsi
	movq	%rax, %rdi
.LEHB266:
	call	_ZNSt7__cxx1112basic_stringIcSt11char_traitsIcESaIcEEC1IS3_EEPKcRKS3_
.LEHE266:
	leaq	-544(%rbp), %rax
	movq	%rax, %rsi
	movq	%r12, %rdi
.LEHB267:
	call	_ZN20AbstractKeywordTokenC1ENSt7__cxx1112basic_stringIcSt11char_traitsIcESaIcEEE
	movq	%r12, %rsi
	movq	%rbx, %rdi
	call	_ZNSt10shared_ptrI20AbstractKeywordTokenEC1IS0_vEEPT_
.LEHE267:
	leaq	-544(%rbp), %rax
	movq	%rax, %rdi
	call	_ZNSt7__cxx1112basic_stringIcSt11char_traitsIcESaIcEED1Ev@PLT
	leaq	-497(%rbp), %rax
	movq	%rax, %rdi
	call	_ZNSaIcED1Ev@PLT
	movq	-888(%rbp), %rax
	leaq	128(%rax), %rbx
	movl	$72, %edi
.LEHB268:
	call	_Znwm@PLT
.LEHE268:
	movq	%rax, %r12
	leaq	-449(%rbp), %rax
	movq	%rax, %rdi
	call	_ZNSaIcEC1Ev@PLT
	leaq	-449(%rbp), %rdx
	leaq	-496(%rbp), %rax
	leaq	.LC46(%rip), %rcx
	movq	%rcx, %rsi
	movq	%rax, %rdi
.LEHB269:
	call	_ZNSt7__cxx1112basic_stringIcSt11char_traitsIcESaIcEEC1IS3_EEPKcRKS3_
.LEHE269:
	leaq	-496(%rbp), %rax
	movq	%rax, %rsi
	movq	%r12, %rdi
.LEHB270:
	call	_ZN20AbstractKeywordTokenC1ENSt7__cxx1112basic_stringIcSt11char_traitsIcESaIcEEE
	movq	%r12, %rsi
	movq	%rbx, %rdi
	call	_ZNSt10shared_ptrI20AbstractKeywordTokenEC1IS0_vEEPT_
.LEHE270:
	leaq	-496(%rbp), %rax
	movq	%rax, %rdi
	call	_ZNSt7__cxx1112basic_stringIcSt11char_traitsIcESaIcEED1Ev@PLT
	leaq	-449(%rbp), %rax
	movq	%rax, %rdi
	call	_ZNSaIcED1Ev@PLT
	movq	-888(%rbp), %rax
	leaq	144(%rax), %rbx
	movl	$72, %edi
.LEHB271:
	call	_Znwm@PLT
.LEHE271:
	movq	%rax, %r12
	leaq	-401(%rbp), %rax
	movq	%rax, %rdi
	call	_ZNSaIcEC1Ev@PLT
	leaq	-401(%rbp), %rdx
	leaq	-448(%rbp), %rax
	leaq	.LC47(%rip), %rcx
	movq	%rcx, %rsi
	movq	%rax, %rdi
.LEHB272:
	call	_ZNSt7__cxx1112basic_stringIcSt11char_traitsIcESaIcEEC1IS3_EEPKcRKS3_
.LEHE272:
	leaq	-448(%rbp), %rax
	movq	%rax, %rsi
	movq	%r12, %rdi
.LEHB273:
	call	_ZN20AbstractKeywordTokenC1ENSt7__cxx1112basic_stringIcSt11char_traitsIcESaIcEEE
	movq	%r12, %rsi
	movq	%rbx, %rdi
	call	_ZNSt10shared_ptrI20AbstractKeywordTokenEC1IS0_vEEPT_
.LEHE273:
	leaq	-448(%rbp), %rax
	movq	%rax, %rdi
	call	_ZNSt7__cxx1112basic_stringIcSt11char_traitsIcESaIcEED1Ev@PLT
	leaq	-401(%rbp), %rax
	movq	%rax, %rdi
	call	_ZNSaIcED1Ev@PLT
	movq	-888(%rbp), %rax
	leaq	160(%rax), %rbx
	movl	$72, %edi
.LEHB274:
	call	_Znwm@PLT
.LEHE274:
	movq	%rax, %r12
	leaq	-353(%rbp), %rax
	movq	%rax, %rdi
	call	_ZNSaIcEC1Ev@PLT
	leaq	-353(%rbp), %rdx
	leaq	-400(%rbp), %rax
	leaq	.LC48(%rip), %rcx
	movq	%rcx, %rsi
	movq	%rax, %rdi
.LEHB275:
	call	_ZNSt7__cxx1112basic_stringIcSt11char_traitsIcESaIcEEC1IS3_EEPKcRKS3_
.LEHE275:
	leaq	-400(%rbp), %rax
	movq	%rax, %rsi
	movq	%r12, %rdi
.LEHB276:
	call	_ZN20AbstractKeywordTokenC1ENSt7__cxx1112basic_stringIcSt11char_traitsIcESaIcEEE
	movq	%r12, %rsi
	movq	%rbx, %rdi
	call	_ZNSt10shared_ptrI20AbstractKeywordTokenEC1IS0_vEEPT_
.LEHE276:
	leaq	-400(%rbp), %rax
	movq	%rax, %rdi
	call	_ZNSt7__cxx1112basic_stringIcSt11char_traitsIcESaIcEED1Ev@PLT
	leaq	-353(%rbp), %rax
	movq	%rax, %rdi
	call	_ZNSaIcED1Ev@PLT
	movq	-888(%rbp), %rax
	leaq	176(%rax), %rbx
	movl	$72, %edi
.LEHB277:
	call	_Znwm@PLT
.LEHE277:
	movq	%rax, %r12
	leaq	-305(%rbp), %rax
	movq	%rax, %rdi
	call	_ZNSaIcEC1Ev@PLT
	leaq	-305(%rbp), %rdx
	leaq	-352(%rbp), %rax
	leaq	.LC49(%rip), %rcx
	movq	%rcx, %rsi
	movq	%rax, %rdi
.LEHB278:
	call	_ZNSt7__cxx1112basic_stringIcSt11char_traitsIcESaIcEEC1IS3_EEPKcRKS3_
.LEHE278:
	leaq	-352(%rbp), %rax
	movq	%rax, %rsi
	movq	%r12, %rdi
.LEHB279:
	call	_ZN20AbstractKeywordTokenC1ENSt7__cxx1112basic_stringIcSt11char_traitsIcESaIcEEE
	movq	%r12, %rsi
	movq	%rbx, %rdi
	call	_ZNSt10shared_ptrI20AbstractKeywordTokenEC1IS0_vEEPT_
.LEHE279:
	leaq	-352(%rbp), %rax
	movq	%rax, %rdi
	call	_ZNSt7__cxx1112basic_stringIcSt11char_traitsIcESaIcEED1Ev@PLT
	leaq	-305(%rbp), %rax
	movq	%rax, %rdi
	call	_ZNSaIcED1Ev@PLT
	movq	-888(%rbp), %rax
	leaq	192(%rax), %rbx
	movl	$72, %edi
.LEHB280:
	call	_Znwm@PLT
.LEHE280:
	movq	%rax, %r12
	leaq	-257(%rbp), %rax
	movq	%rax, %rdi
	call	_ZNSaIcEC1Ev@PLT
	leaq	-257(%rbp), %rdx
	leaq	-304(%rbp), %rax
	leaq	.LC50(%rip), %rcx
	movq	%rcx, %rsi
	movq	%rax, %rdi
.LEHB281:
	call	_ZNSt7__cxx1112basic_stringIcSt11char_traitsIcESaIcEEC1IS3_EEPKcRKS3_
.LEHE281:
	leaq	-304(%rbp), %rax
	movq	%rax, %rsi
	movq	%r12, %rdi
.LEHB282:
	call	_ZN20AbstractKeywordTokenC1ENSt7__cxx1112basic_stringIcSt11char_traitsIcESaIcEEE
	movq	%r12, %rsi
	movq	%rbx, %rdi
	call	_ZNSt10shared_ptrI20AbstractKeywordTokenEC1IS0_vEEPT_
.LEHE282:
	leaq	-304(%rbp), %rax
	movq	%rax, %rdi
	call	_ZNSt7__cxx1112basic_stringIcSt11char_traitsIcESaIcEED1Ev@PLT
	leaq	-257(%rbp), %rax
	movq	%rax, %rdi
	call	_ZNSaIcED1Ev@PLT
	movq	-888(%rbp), %rax
	leaq	208(%rax), %rbx
	movl	$72, %edi
.LEHB283:
	call	_Znwm@PLT
.LEHE283:
	movq	%rax, %r12
	leaq	-209(%rbp), %rax
	movq	%rax, %rdi
	call	_ZNSaIcEC1Ev@PLT
	leaq	-209(%rbp), %rdx
	leaq	-256(%rbp), %rax
	leaq	.LC51(%rip), %rcx
	movq	%rcx, %rsi
	movq	%rax, %rdi
.LEHB284:
	call	_ZNSt7__cxx1112basic_stringIcSt11char_traitsIcESaIcEEC1IS3_EEPKcRKS3_
.LEHE284:
	leaq	-256(%rbp), %rax
	movq	%rax, %rsi
	movq	%r12, %rdi
.LEHB285:
	call	_ZN20AbstractKeywordTokenC1ENSt7__cxx1112basic_stringIcSt11char_traitsIcESaIcEEE
	movq	%r12, %rsi
	movq	%rbx, %rdi
	call	_ZNSt10shared_ptrI20AbstractKeywordTokenEC1IS0_vEEPT_
.LEHE285:
	leaq	-256(%rbp), %rax
	movq	%rax, %rdi
	call	_ZNSt7__cxx1112basic_stringIcSt11char_traitsIcESaIcEED1Ev@PLT
	leaq	-209(%rbp), %rax
	movq	%rax, %rdi
	call	_ZNSaIcED1Ev@PLT
	movq	-888(%rbp), %rax
	leaq	224(%rax), %rbx
	movl	$72, %edi
.LEHB286:
	call	_Znwm@PLT
.LEHE286:
	movq	%rax, %r12
	leaq	-161(%rbp), %rax
	movq	%rax, %rdi
	call	_ZNSaIcEC1Ev@PLT
	leaq	-161(%rbp), %rdx
	leaq	-208(%rbp), %rax
	leaq	.LC52(%rip), %rcx
	movq	%rcx, %rsi
	movq	%rax, %rdi
.LEHB287:
	call	_ZNSt7__cxx1112basic_stringIcSt11char_traitsIcESaIcEEC1IS3_EEPKcRKS3_
.LEHE287:
	leaq	-208(%rbp), %rax
	movq	%rax, %rsi
	movq	%r12, %rdi
.LEHB288:
	call	_ZN20AbstractKeywordTokenC1ENSt7__cxx1112basic_stringIcSt11char_traitsIcESaIcEEE
	movq	%r12, %rsi
	movq	%rbx, %rdi
	call	_ZNSt10shared_ptrI20AbstractKeywordTokenEC1IS0_vEEPT_
.LEHE288:
	leaq	-208(%rbp), %rax
	movq	%rax, %rdi
	call	_ZNSt7__cxx1112basic_stringIcSt11char_traitsIcESaIcEED1Ev@PLT
	leaq	-161(%rbp), %rax
	movq	%rax, %rdi
	call	_ZNSaIcED1Ev@PLT
	movq	-888(%rbp), %rax
	leaq	240(%rax), %rbx
	movl	$72, %edi
.LEHB289:
	call	_Znwm@PLT
.LEHE289:
	movq	%rax, %r12
	leaq	-113(%rbp), %rax
	movq	%rax, %rdi
	call	_ZNSaIcEC1Ev@PLT
	leaq	-113(%rbp), %rdx
	leaq	-160(%rbp), %rax
	leaq	.LC53(%rip), %rcx
	movq	%rcx, %rsi
	movq	%rax, %rdi
.LEHB290:
	call	_ZNSt7__cxx1112basic_stringIcSt11char_traitsIcESaIcEEC1IS3_EEPKcRKS3_
.LEHE290:
	leaq	-160(%rbp), %rax
	movq	%rax, %rsi
	movq	%r12, %rdi
.LEHB291:
	call	_ZN20AbstractKeywordTokenC1ENSt7__cxx1112basic_stringIcSt11char_traitsIcESaIcEEE
	movq	%r12, %rsi
	movq	%rbx, %rdi
	call	_ZNSt10shared_ptrI20AbstractKeywordTokenEC1IS0_vEEPT_
.LEHE291:
	leaq	-160(%rbp), %rax
	movq	%rax, %rdi
	call	_ZNSt7__cxx1112basic_stringIcSt11char_traitsIcESaIcEED1Ev@PLT
	leaq	-113(%rbp), %rax
	movq	%rax, %rdi
	call	_ZNSaIcED1Ev@PLT
	movq	-888(%rbp), %rax
	leaq	256(%rax), %rbx
	movl	$72, %edi
.LEHB292:
	call	_Znwm@PLT
.LEHE292:
	movq	%rax, %r12
	leaq	-65(%rbp), %rax
	movq	%rax, %rdi
	call	_ZNSaIcEC1Ev@PLT
	leaq	-65(%rbp), %rdx
	leaq	-112(%rbp), %rax
	leaq	.LC54(%rip), %rcx
	movq	%rcx, %rsi
	movq	%rax, %rdi
.LEHB293:
	call	_ZNSt7__cxx1112basic_stringIcSt11char_traitsIcESaIcEEC1IS3_EEPKcRKS3_
.LEHE293:
	leaq	-112(%rbp), %rax
	movq	%rax, %rsi
	movq	%r12, %rdi
.LEHB294:
	call	_ZN20AbstractKeywordTokenC1ENSt7__cxx1112basic_stringIcSt11char_traitsIcESaIcEEE
	movq	%r12, %rsi
	movq	%rbx, %rdi
	call	_ZNSt10shared_ptrI20AbstractKeywordTokenEC1IS0_vEEPT_
.LEHE294:
	leaq	-112(%rbp), %rax
	movq	%rax, %rdi
	call	_ZNSt7__cxx1112basic_stringIcSt11char_traitsIcESaIcEED1Ev@PLT
	leaq	-65(%rbp), %rax
	movq	%rax, %rdi
	call	_ZNSaIcED1Ev@PLT
	movq	-888(%rbp), %rax
	leaq	272(%rax), %rbx
	movl	$72, %edi
.LEHB295:
	call	_Znwm@PLT
.LEHE295:
	movq	%rax, %r12
	leaq	-17(%rbp), %rax
	movq	%rax, %rdi
	call	_ZNSaIcEC1Ev@PLT
	leaq	-17(%rbp), %rdx
	leaq	-64(%rbp), %rax
	leaq	.LC55(%rip), %rcx
	movq	%rcx, %rsi
	movq	%rax, %rdi
.LEHB296:
	call	_ZNSt7__cxx1112basic_stringIcSt11char_traitsIcESaIcEEC1IS3_EEPKcRKS3_
.LEHE296:
	leaq	-64(%rbp), %rax
	movq	%rax, %rsi
	movq	%r12, %rdi
.LEHB297:
	call	_ZN20AbstractKeywordTokenC1ENSt7__cxx1112basic_stringIcSt11char_traitsIcESaIcEEE
	movq	%r12, %rsi
	movq	%rbx, %rdi
	call	_ZNSt10shared_ptrI20AbstractKeywordTokenEC1IS0_vEEPT_
.LEHE297:
	leaq	-64(%rbp), %rax
	movq	%rax, %rdi
	call	_ZNSt7__cxx1112basic_stringIcSt11char_traitsIcESaIcEED1Ev@PLT
	leaq	-17(%rbp), %rax
	movq	%rax, %rdi
	call	_ZNSaIcED1Ev@PLT
	jmp	.L788
.L736:
	movq	%rax, %rbx
	leaq	-880(%rbp), %rax
	movq	%rax, %rdi
	call	_ZNSt7__cxx1112basic_stringIcSt11char_traitsIcESaIcEED1Ev@PLT
	jmp	.L683
.L735:
	movq	%rax, %rbx
.L683:
	leaq	-833(%rbp), %rax
	movq	%rax, %rdi
	call	_ZNSaIcED1Ev@PLT
	movq	%rbx, %rax
	movq	%rax, %rdi
.LEHB298:
	call	_Unwind_Resume@PLT
.L739:
	movq	%rax, %rbx
	leaq	-832(%rbp), %rax
	movq	%rax, %rdi
	call	_ZNSt7__cxx1112basic_stringIcSt11char_traitsIcESaIcEED1Ev@PLT
	jmp	.L685
.L738:
	movq	%rax, %rbx
.L685:
	leaq	-785(%rbp), %rax
	movq	%rax, %rdi
	call	_ZNSaIcED1Ev@PLT
	jmp	.L686
.L742:
	movq	%rax, %rbx
	leaq	-784(%rbp), %rax
	movq	%rax, %rdi
	call	_ZNSt7__cxx1112basic_stringIcSt11char_traitsIcESaIcEED1Ev@PLT
	jmp	.L688
.L741:
	movq	%rax, %rbx
.L688:
	leaq	-737(%rbp), %rax
	movq	%rax, %rdi
	call	_ZNSaIcED1Ev@PLT
	jmp	.L689
.L745:
	movq	%rax, %rbx
	leaq	-736(%rbp), %rax
	movq	%rax, %rdi
	call	_ZNSt7__cxx1112basic_stringIcSt11char_traitsIcESaIcEED1Ev@PLT
	jmp	.L691
.L744:
	movq	%rax, %rbx
.L691:
	leaq	-689(%rbp), %rax
	movq	%rax, %rdi
	call	_ZNSaIcED1Ev@PLT
	jmp	.L692
.L748:
	movq	%rax, %rbx
	leaq	-688(%rbp), %rax
	movq	%rax, %rdi
	call	_ZNSt7__cxx1112basic_stringIcSt11char_traitsIcESaIcEED1Ev@PLT
	jmp	.L694
.L747:
	movq	%rax, %rbx
.L694:
	leaq	-641(%rbp), %rax
	movq	%rax, %rdi
	call	_ZNSaIcED1Ev@PLT
	jmp	.L695
.L751:
	movq	%rax, %rbx
	leaq	-640(%rbp), %rax
	movq	%rax, %rdi
	call	_ZNSt7__cxx1112basic_stringIcSt11char_traitsIcESaIcEED1Ev@PLT
	jmp	.L697
.L750:
	movq	%rax, %rbx
.L697:
	leaq	-593(%rbp), %rax
	movq	%rax, %rdi
	call	_ZNSaIcED1Ev@PLT
	jmp	.L698
.L754:
	movq	%rax, %rbx
	leaq	-592(%rbp), %rax
	movq	%rax, %rdi
	call	_ZNSt7__cxx1112basic_stringIcSt11char_traitsIcESaIcEED1Ev@PLT
	jmp	.L700
.L753:
	movq	%rax, %rbx
.L700:
	leaq	-545(%rbp), %rax
	movq	%rax, %rdi
	call	_ZNSaIcED1Ev@PLT
	jmp	.L701
.L757:
	movq	%rax, %rbx
	leaq	-544(%rbp), %rax
	movq	%rax, %rdi
	call	_ZNSt7__cxx1112basic_stringIcSt11char_traitsIcESaIcEED1Ev@PLT
	jmp	.L703
.L756:
	movq	%rax, %rbx
.L703:
	leaq	-497(%rbp), %rax
	movq	%rax, %rdi
	call	_ZNSaIcED1Ev@PLT
	jmp	.L704
.L760:
	movq	%rax, %rbx
	leaq	-496(%rbp), %rax
	movq	%rax, %rdi
	call	_ZNSt7__cxx1112basic_stringIcSt11char_traitsIcESaIcEED1Ev@PLT
	jmp	.L706
.L759:
	movq	%rax, %rbx
.L706:
	leaq	-449(%rbp), %rax
	movq	%rax, %rdi
	call	_ZNSaIcED1Ev@PLT
	jmp	.L707
.L763:
	movq	%rax, %rbx
	leaq	-448(%rbp), %rax
	movq	%rax, %rdi
	call	_ZNSt7__cxx1112basic_stringIcSt11char_traitsIcESaIcEED1Ev@PLT
	jmp	.L709
.L762:
	movq	%rax, %rbx
.L709:
	leaq	-401(%rbp), %rax
	movq	%rax, %rdi
	call	_ZNSaIcED1Ev@PLT
	jmp	.L710
.L766:
	movq	%rax, %rbx
	leaq	-400(%rbp), %rax
	movq	%rax, %rdi
	call	_ZNSt7__cxx1112basic_stringIcSt11char_traitsIcESaIcEED1Ev@PLT
	jmp	.L712
.L765:
	movq	%rax, %rbx
.L712:
	leaq	-353(%rbp), %rax
	movq	%rax, %rdi
	call	_ZNSaIcED1Ev@PLT
	jmp	.L713
.L769:
	movq	%rax, %rbx
	leaq	-352(%rbp), %rax
	movq	%rax, %rdi
	call	_ZNSt7__cxx1112basic_stringIcSt11char_traitsIcESaIcEED1Ev@PLT
	jmp	.L715
.L768:
	movq	%rax, %rbx
.L715:
	leaq	-305(%rbp), %rax
	movq	%rax, %rdi
	call	_ZNSaIcED1Ev@PLT
	jmp	.L716
.L772:
	movq	%rax, %rbx
	leaq	-304(%rbp), %rax
	movq	%rax, %rdi
	call	_ZNSt7__cxx1112basic_stringIcSt11char_traitsIcESaIcEED1Ev@PLT
	jmp	.L718
.L771:
	movq	%rax, %rbx
.L718:
	leaq	-257(%rbp), %rax
	movq	%rax, %rdi
	call	_ZNSaIcED1Ev@PLT
	jmp	.L719
.L775:
	movq	%rax, %rbx
	leaq	-256(%rbp), %rax
	movq	%rax, %rdi
	call	_ZNSt7__cxx1112basic_stringIcSt11char_traitsIcESaIcEED1Ev@PLT
	jmp	.L721
.L774:
	movq	%rax, %rbx
.L721:
	leaq	-209(%rbp), %rax
	movq	%rax, %rdi
	call	_ZNSaIcED1Ev@PLT
	jmp	.L722
.L778:
	movq	%rax, %rbx
	leaq	-208(%rbp), %rax
	movq	%rax, %rdi
	call	_ZNSt7__cxx1112basic_stringIcSt11char_traitsIcESaIcEED1Ev@PLT
	jmp	.L724
.L777:
	movq	%rax, %rbx
.L724:
	leaq	-161(%rbp), %rax
	movq	%rax, %rdi
	call	_ZNSaIcED1Ev@PLT
	jmp	.L725
.L781:
	movq	%rax, %rbx
	leaq	-160(%rbp), %rax
	movq	%rax, %rdi
	call	_ZNSt7__cxx1112basic_stringIcSt11char_traitsIcESaIcEED1Ev@PLT
	jmp	.L727
.L780:
	movq	%rax, %rbx
.L727:
	leaq	-113(%rbp), %rax
	movq	%rax, %rdi
	call	_ZNSaIcED1Ev@PLT
	jmp	.L728
.L784:
	movq	%rax, %rbx
	leaq	-112(%rbp), %rax
	movq	%rax, %rdi
	call	_ZNSt7__cxx1112basic_stringIcSt11char_traitsIcESaIcEED1Ev@PLT
	jmp	.L730
.L783:
	movq	%rax, %rbx
.L730:
	leaq	-65(%rbp), %rax
	movq	%rax, %rdi
	call	_ZNSaIcED1Ev@PLT
	jmp	.L731
.L787:
	movq	%rax, %rbx
	leaq	-64(%rbp), %rax
	movq	%rax, %rdi
	call	_ZNSt7__cxx1112basic_stringIcSt11char_traitsIcESaIcEED1Ev@PLT
	jmp	.L733
.L786:
	movq	%rax, %rbx
.L733:
	leaq	-17(%rbp), %rax
	movq	%rax, %rdi
	call	_ZNSaIcED1Ev@PLT
	jmp	.L734
.L785:
	movq	%rax, %rbx
.L734:
	movq	-888(%rbp), %rax
	addq	$256, %rax
	movq	%rax, %rdi
	call	_ZNSt10shared_ptrI20AbstractKeywordTokenED1Ev
	jmp	.L731
.L782:
	movq	%rax, %rbx
.L731:
	movq	-888(%rbp), %rax
	addq	$240, %rax
	movq	%rax, %rdi
	call	_ZNSt10shared_ptrI20AbstractKeywordTokenED1Ev
	jmp	.L728
.L779:
	movq	%rax, %rbx
.L728:
	movq	-888(%rbp), %rax
	addq	$224, %rax
	movq	%rax, %rdi
	call	_ZNSt10shared_ptrI20AbstractKeywordTokenED1Ev
	jmp	.L725
.L776:
	movq	%rax, %rbx
.L725:
	movq	-888(%rbp), %rax
	addq	$208, %rax
	movq	%rax, %rdi
	call	_ZNSt10shared_ptrI20AbstractKeywordTokenED1Ev
	jmp	.L722
.L773:
	movq	%rax, %rbx
.L722:
	movq	-888(%rbp), %rax
	addq	$192, %rax
	movq	%rax, %rdi
	call	_ZNSt10shared_ptrI20AbstractKeywordTokenED1Ev
	jmp	.L719
.L770:
	movq	%rax, %rbx
.L719:
	movq	-888(%rbp), %rax
	addq	$176, %rax
	movq	%rax, %rdi
	call	_ZNSt10shared_ptrI20AbstractKeywordTokenED1Ev
	jmp	.L716
.L767:
	movq	%rax, %rbx
.L716:
	movq	-888(%rbp), %rax
	addq	$160, %rax
	movq	%rax, %rdi
	call	_ZNSt10shared_ptrI20AbstractKeywordTokenED1Ev
	jmp	.L713
.L764:
	movq	%rax, %rbx
.L713:
	movq	-888(%rbp), %rax
	addq	$144, %rax
	movq	%rax, %rdi
	call	_ZNSt10shared_ptrI20AbstractKeywordTokenED1Ev
	jmp	.L710
.L761:
	movq	%rax, %rbx
.L710:
	movq	-888(%rbp), %rax
	subq	$-128, %rax
	movq	%rax, %rdi
	call	_ZNSt10shared_ptrI20AbstractKeywordTokenED1Ev
	jmp	.L707
.L758:
	movq	%rax, %rbx
.L707:
	movq	-888(%rbp), %rax
	addq	$112, %rax
	movq	%rax, %rdi
	call	_ZNSt10shared_ptrI20AbstractKeywordTokenED1Ev
	jmp	.L704
.L755:
	movq	%rax, %rbx
.L704:
	movq	-888(%rbp), %rax
	addq	$96, %rax
	movq	%rax, %rdi
	call	_ZNSt10shared_ptrI20AbstractKeywordTokenED1Ev
	jmp	.L701
.L752:
	movq	%rax, %rbx
.L701:
	movq	-888(%rbp), %rax
	addq	$80, %rax
	movq	%rax, %rdi
	call	_ZNSt10shared_ptrI20AbstractKeywordTokenED1Ev
	jmp	.L698
.L749:
	movq	%rax, %rbx
.L698:
	movq	-888(%rbp), %rax
	addq	$64, %rax
	movq	%rax, %rdi
	call	_ZNSt10shared_ptrI20AbstractKeywordTokenED1Ev
	jmp	.L695
.L746:
	movq	%rax, %rbx
.L695:
	movq	-888(%rbp), %rax
	addq	$48, %rax
	movq	%rax, %rdi
	call	_ZNSt10shared_ptrI20AbstractKeywordTokenED1Ev
	jmp	.L692
.L743:
	movq	%rax, %rbx
.L692:
	movq	-888(%rbp), %rax
	addq	$32, %rax
	movq	%rax, %rdi
	call	_ZNSt10shared_ptrI20AbstractKeywordTokenED1Ev
	jmp	.L689
.L740:
	movq	%rax, %rbx
.L689:
	movq	-888(%rbp), %rax
	addq	$16, %rax
	movq	%rax, %rdi
	call	_ZNSt10shared_ptrI20AbstractKeywordTokenED1Ev
	jmp	.L686
.L737:
	movq	%rax, %rbx
.L686:
	movq	-888(%rbp), %rax
	movq	%rax, %rdi
	call	_ZNSt10shared_ptrI20AbstractKeywordTokenED1Ev
	movq	%rbx, %rax
	movq	%rax, %rdi
	call	_Unwind_Resume@PLT
.LEHE298:
.L788:
	addq	$880, %rsp
	popq	%rbx
	popq	%r12
	popq	%rbp
	.cfi_def_cfa 7, 8
	ret
	.cfi_endproc
.LFE3205:
	.section	.gcc_except_table
.LLSDA3205:
	.byte	0xff
	.byte	0xff
	.byte	0x1
	.uleb128 .LLSDACSE3205-.LLSDACSB3205
.LLSDACSB3205:
	.uleb128 .LEHB244-.LFB3205
	.uleb128 .LEHE244-.LEHB244
	.uleb128 0
	.uleb128 0
	.uleb128 .LEHB245-.LFB3205
	.uleb128 .LEHE245-.LEHB245
	.uleb128 .L735-.LFB3205
	.uleb128 0
	.uleb128 .LEHB246-.LFB3205
	.uleb128 .LEHE246-.LEHB246
	.uleb128 .L736-.LFB3205
	.uleb128 0
	.uleb128 .LEHB247-.LFB3205
	.uleb128 .LEHE247-.LEHB247
	.uleb128 .L737-.LFB3205
	.uleb128 0
	.uleb128 .LEHB248-.LFB3205
	.uleb128 .LEHE248-.LEHB248
	.uleb128 .L738-.LFB3205
	.uleb128 0
	.uleb128 .LEHB249-.LFB3205
	.uleb128 .LEHE249-.LEHB249
	.uleb128 .L739-.LFB3205
	.uleb128 0
	.uleb128 .LEHB250-.LFB3205
	.uleb128 .LEHE250-.LEHB250
	.uleb128 .L740-.LFB3205
	.uleb128 0
	.uleb128 .LEHB251-.LFB3205
	.uleb128 .LEHE251-.LEHB251
	.uleb128 .L741-.LFB3205
